---
triple:          'arm64-apple-darwin'
binary-path:     'bin/Connect5'
relocations:
  - { offsetInCU: 0x26, offset: 0x26, size: 0x8, addend: 0x0, symName: __ZN3MLS6HumainC2Ev, symObjAddr: 0x0, symBinAddr: 0x100003348, symSize: 0x4C }
  - { offsetInCU: 0x6438, offset: 0x6438, size: 0x8, addend: 0x0, symName: __ZN3MLS6HumainC2Ev, symObjAddr: 0x0, symBinAddr: 0x100003348, symSize: 0x4C }
  - { offsetInCU: 0x6462, offset: 0x6462, size: 0x8, addend: 0x0, symName: __ZN3MLS6HumainC1Ev, symObjAddr: 0x4C, symBinAddr: 0x100003394, symSize: 0x2C }
  - { offsetInCU: 0x648C, offset: 0x648C, size: 0x8, addend: 0x0, symName: __ZN3MLS6HumainC2EPNS_5BoardE, symObjAddr: 0x78, symBinAddr: 0x1000033C0, symSize: 0x54 }
  - { offsetInCU: 0x64C4, offset: 0x64C4, size: 0x8, addend: 0x0, symName: __ZN3MLS6HumainC1EPNS_5BoardE, symObjAddr: 0xCC, symBinAddr: 0x100003414, symSize: 0x34 }
  - { offsetInCU: 0x64FC, offset: 0x64FC, size: 0x8, addend: 0x0, symName: __ZNK3MLS6Humain10get_columnEv, symObjAddr: 0x100, symBinAddr: 0x100003448, symSize: 0x138 }
  - { offsetInCU: 0x4C, offset: 0x6594, size: 0x8, addend: 0x0, symName: __ZN3MLS6Player12PLAYER1_TILEE, symObjAddr: 0x19DC8, symBinAddr: 0x100018008, symSize: 0x0 }
  - { offsetInCU: 0x3C09, offset: 0xA151, size: 0x8, addend: 0x0, symName: '__ZNSt3__18count_ifB7v160006INS_11__wrap_iterIPN3MLS4TileEEEZNKS2_6Player8evaluateENS_6vectorIS3_NS_9allocatorIS3_EEEEE3$_0EENS_15iterator_traitsIT_E15difference_typeESD_SD_T0_', symObjAddr: 0x778, symBinAddr: 0x100003CF8, symSize: 0x80 }
  - { offsetInCU: 0x3C71, offset: 0xA1B9, size: 0x8, addend: 0x0, symName: '__ZNSt3__18count_ifB7v160006INS_11__wrap_iterIPN3MLS4TileEEEZNKS2_6Player8evaluateENS_6vectorIS3_NS_9allocatorIS3_EEEEE3$_1EENS_15iterator_traitsIT_E15difference_typeESD_SD_T0_', symObjAddr: 0x858, symBinAddr: 0x100003DD8, symSize: 0x80 }
  - { offsetInCU: 0x3CD9, offset: 0xA221, size: 0x8, addend: 0x0, symName: '__ZNSt3__18count_ifB7v160006INS_11__wrap_iterIPN3MLS4TileEEEZNKS2_6Player8evaluateENS_6vectorIS3_NS_9allocatorIS3_EEEEE3$_2EENS_15iterator_traitsIT_E15difference_typeESD_SD_T0_', symObjAddr: 0x8D8, symBinAddr: 0x100003E58, symSize: 0x7C }
  - { offsetInCU: 0x3D41, offset: 0xA289, size: 0x8, addend: 0x0, symName: '__ZNSt3__18count_ifB7v160006INS_11__wrap_iterIPN3MLS4TileEEEZNKS2_6Player6winnerEvE3$_3EENS_15iterator_traitsIT_E15difference_typeES9_S9_T0_', symObjAddr: 0xD0C, symBinAddr: 0x10000428C, symSize: 0x80 }
  - { offsetInCU: 0x3DA9, offset: 0xA2F1, size: 0x8, addend: 0x0, symName: '__ZNSt3__18count_ifB7v160006INS_11__wrap_iterIPN3MLS4TileEEEZNKS2_6Player6winnerEvE3$_4EENS_15iterator_traitsIT_E15difference_typeES9_S9_T0_', symObjAddr: 0xD8C, symBinAddr: 0x10000430C, symSize: 0x80 }
  - { offsetInCU: 0x3E11, offset: 0xA359, size: 0x8, addend: 0x0, symName: '__ZNSt3__18count_ifB7v160006INS_11__wrap_iterIPN3MLS4TileEEEZNKS2_6Player6winnerEvE3$_5EENS_15iterator_traitsIT_E15difference_typeES9_S9_T0_', symObjAddr: 0xE0C, symBinAddr: 0x10000438C, symSize: 0x80 }
  - { offsetInCU: 0x3E79, offset: 0xA3C1, size: 0x8, addend: 0x0, symName: '__ZNSt3__18count_ifB7v160006INS_11__wrap_iterIPN3MLS4TileEEEZNKS2_6Player6winnerEvE3$_6EENS_15iterator_traitsIT_E15difference_typeES9_S9_T0_', symObjAddr: 0xE8C, symBinAddr: 0x10000440C, symSize: 0x80 }
  - { offsetInCU: 0x3EE1, offset: 0xA429, size: 0x8, addend: 0x0, symName: __ZNSt3__119__debug_db_insert_cB7v160006INS_12basic_stringIcNS_11char_traitsIcEENS_9allocatorIcEEEEEEvPT_, symObjAddr: 0x100C, symBinAddr: 0x10000458C, symSize: 0x10 }
  - { offsetInCU: 0x3F12, offset: 0xA45A, size: 0x8, addend: 0x0, symName: __ZNSt3__118__constexpr_strlenB7v160006EPKc, symObjAddr: 0x10D8, symBinAddr: 0x100004658, symSize: 0x24 }
  - { offsetInCU: 0x3F3E, offset: 0xA486, size: 0x8, addend: 0x0, symName: __ZNSt3__118__debug_db_erase_cB7v160006INS_6vectorIN3MLS4TileENS_9allocatorIS3_EEEEEEvPT_, symObjAddr: 0x1310, symBinAddr: 0x100004890, symSize: 0x10 }
  - { offsetInCU: 0x3F6F, offset: 0xA4B7, size: 0x8, addend: 0x0, symName: __ZNSt3__112__to_addressB7v160006IN3MLS4TileEEEPT_S4_, symObjAddr: 0x1454, symBinAddr: 0x1000049D4, symSize: 0x14 }
  - { offsetInCU: 0x3FA4, offset: 0xA4EC, size: 0x8, addend: 0x0, symName: __ZNSt3__119__libcpp_deallocateB7v160006EPvmm, symObjAddr: 0x158C, symBinAddr: 0x100004B0C, symSize: 0x30 }
  - { offsetInCU: 0x3FEC, offset: 0xA534, size: 0x8, addend: 0x0, symName: __ZNSt3__127__do_deallocate_handle_sizeB7v160006IJEEEvPvmDpT_, symObjAddr: 0x15BC, symBinAddr: 0x100004B3C, symSize: 0x28 }
  - { offsetInCU: 0x402A, offset: 0xA572, size: 0x8, addend: 0x0, symName: __ZNSt3__124__libcpp_operator_deleteB7v160006IJPvEEEvDpT_, symObjAddr: 0x15E4, symBinAddr: 0x100004B64, symSize: 0x24 }
  - { offsetInCU: 0x405F, offset: 0xA5A7, size: 0x8, addend: 0x0, symName: __ZNSt3__1neB7v160006IPN3MLS4TileEEEbRKNS_11__wrap_iterIT_EES8_, symObjAddr: 0x1734, symBinAddr: 0x100004CB4, symSize: 0x34 }
  - { offsetInCU: 0x40A2, offset: 0xA5EA, size: 0x8, addend: 0x0, symName: __ZNSt3__1eqB7v160006IPN3MLS4TileEEEbRKNS_11__wrap_iterIT_EES8_, symObjAddr: 0x17DC, symBinAddr: 0x100004D5C, symSize: 0x48 }
  - { offsetInCU: 0x40E5, offset: 0xA62D, size: 0x8, addend: 0x0, symName: __ZNSt3__1eqB7v160006INS_9allocatorIcEEEEbRKNS_12basic_stringIcNS_11char_traitsIcEET_EES9_, symObjAddr: 0x183C, symBinAddr: 0x100004DBC, symSize: 0x148 }
  - { offsetInCU: 0x4158, offset: 0xA6A0, size: 0x8, addend: 0x0, symName: __ZNSt3__112__to_addressB7v160006IKcEEPT_S3_, symObjAddr: 0x1B38, symBinAddr: 0x1000050B8, symSize: 0x14 }
  - { offsetInCU: 0x41C0, offset: 0xA708, size: 0x8, addend: 0x0, symName: __ZNSt3__118__constexpr_memcmpB7v160006IcEEiPKT_S3_m, symObjAddr: 0x1C04, symBinAddr: 0x100005184, symSize: 0x34 }
  - { offsetInCU: 0x4211, offset: 0xA759, size: 0x8, addend: 0x0, symName: __ZNSt3__1eqB7v160006IcNS_11char_traitsIcEENS_9allocatorIcEEEEbRKNS_12basic_stringIT_T0_T1_EEPKS6_, symObjAddr: 0x1CB0, symBinAddr: 0x100005230, symSize: 0xAC }
  - { offsetInCU: 0x463F, offset: 0xAB87, size: 0x8, addend: 0x0, symName: __ZN3MLS6Player12PLAYER2_TILEE, symObjAddr: 0x19DF0, symBinAddr: 0x100018030, symSize: 0x0 }
  - { offsetInCU: 0x63BC, offset: 0xC904, size: 0x8, addend: 0x0, symName: __ZNSt3__112basic_stringIcNS_11char_traitsIcEENS_9allocatorIcEEEC1B7v160006IDnEEPKc, symObjAddr: 0x0, symBinAddr: 0x100003580, symSize: 0x34 }
  - { offsetInCU: 0x63F8, offset: 0xC940, size: 0x8, addend: 0x0, symName: __ZN3MLS4TileD1Ev, symObjAddr: 0x34, symBinAddr: 0x1000035B4, symSize: 0x2C }
  - { offsetInCU: 0x6422, offset: 0xC96A, size: 0x8, addend: 0x0, symName: __ZN3MLS6PlayerC2Ev, symObjAddr: 0x60, symBinAddr: 0x1000035E0, symSize: 0x54 }
  - { offsetInCU: 0x644C, offset: 0xC994, size: 0x8, addend: 0x0, symName: __ZN3MLS6PlayerC2EPNS_5BoardE, symObjAddr: 0xB4, symBinAddr: 0x100003634, symSize: 0x5C }
  - { offsetInCU: 0x6484, offset: 0xC9CC, size: 0x8, addend: 0x0, symName: __ZNK3MLS6Player4moveEPNS_5BoardEi, symObjAddr: 0x110, symBinAddr: 0x100003690, symSize: 0x11C }
  - { offsetInCU: 0x64E2, offset: 0xCA2A, size: 0x8, addend: 0x0, symName: __ZNSt3__16vectorIN3MLS4TileENS_9allocatorIS2_EEEixB7v160006Em, symObjAddr: 0x22C, symBinAddr: 0x1000037AC, symSize: 0x2C }
  - { offsetInCU: 0x6517, offset: 0xCA5F, size: 0x8, addend: 0x0, symName: __ZN3MLS4TileaSERKS0_, symObjAddr: 0x258, symBinAddr: 0x1000037D8, symSize: 0x54 }
  - { offsetInCU: 0x6545, offset: 0xCA8D, size: 0x8, addend: 0x0, symName: __ZNK3MLS6Player4moveEi, symObjAddr: 0x2AC, symBinAddr: 0x10000382C, symSize: 0x30 }
  - { offsetInCU: 0x6579, offset: 0xCAC1, size: 0x8, addend: 0x0, symName: __ZNK3MLS6Player4moveEv, symObjAddr: 0x2DC, symBinAddr: 0x10000385C, symSize: 0x3C }
  - { offsetInCU: 0x659F, offset: 0xCAE7, size: 0x8, addend: 0x0, symName: __ZNK3MLS6Player9get_scoreEv, symObjAddr: 0x318, symBinAddr: 0x100003898, symSize: 0x28 }
  - { offsetInCU: 0x65C5, offset: 0xCB0D, size: 0x8, addend: 0x0, symName: __ZNK3MLS6Player9get_scoreEPNS_5BoardE, symObjAddr: 0x340, symBinAddr: 0x1000038C0, symSize: 0x240 }
  - { offsetInCU: 0x662F, offset: 0xCB77, size: 0x8, addend: 0x0, symName: __ZNK3MLS6Player8evaluateENSt3__16vectorINS_4TileENS1_9allocatorIS3_EEEE, symObjAddr: 0x580, symBinAddr: 0x100003B00, symSize: 0x1CC }
  - { offsetInCU: 0x670B, offset: 0xCC53, size: 0x8, addend: 0x0, symName: __ZNSt3__16vectorIN3MLS4TileENS_9allocatorIS2_EEED1B7v160006Ev, symObjAddr: 0x74C, symBinAddr: 0x100003CCC, symSize: 0x2C }
  - { offsetInCU: 0x6733, offset: 0xCC7B, size: 0x8, addend: 0x0, symName: __ZNSt3__16vectorIN3MLS4TileENS_9allocatorIS2_EEE5beginB7v160006Ev, symObjAddr: 0x7F8, symBinAddr: 0x100003D78, symSize: 0x30 }
  - { offsetInCU: 0x6759, offset: 0xCCA1, size: 0x8, addend: 0x0, symName: __ZNSt3__16vectorIN3MLS4TileENS_9allocatorIS2_EEE3endB7v160006Ev, symObjAddr: 0x828, symBinAddr: 0x100003DA8, symSize: 0x30 }
  - { offsetInCU: 0x677F, offset: 0xCCC7, size: 0x8, addend: 0x0, symName: __ZNK3MLS6Player6winnerEv, symObjAddr: 0x954, symBinAddr: 0x100003ED4, symSize: 0x3B8 }
  - { offsetInCU: 0x68EE, offset: 0xCE36, size: 0x8, addend: 0x0, symName: __ZN3MLS4TileD2Ev, symObjAddr: 0xF0C, symBinAddr: 0x10000448C, symSize: 0x30 }
  - { offsetInCU: 0x6918, offset: 0xCE60, size: 0x8, addend: 0x0, symName: __ZNSt3__112basic_stringIcNS_11char_traitsIcEENS_9allocatorIcEEEC2B7v160006IDnEEPKc, symObjAddr: 0xF3C, symBinAddr: 0x1000044BC, symSize: 0x60 }
  - { offsetInCU: 0x6959, offset: 0xCEA1, size: 0x8, addend: 0x0, symName: __ZNSt3__117__compressed_pairINS_12basic_stringIcNS_11char_traitsIcEENS_9allocatorIcEEE5__repES5_EC1B7v160006INS_18__default_init_tagESA_EEOT_OT0_, symObjAddr: 0xF9C, symBinAddr: 0x10000451C, symSize: 0x3C }
  - { offsetInCU: 0x69AF, offset: 0xCEF7, size: 0x8, addend: 0x0, symName: __ZNSt3__111char_traitsIcE6lengthEPKc, symObjAddr: 0xFD8, symBinAddr: 0x100004558, symSize: 0x34 }
  - { offsetInCU: 0x69D1, offset: 0xCF19, size: 0x8, addend: 0x0, symName: __ZNSt3__117__compressed_pairINS_12basic_stringIcNS_11char_traitsIcEENS_9allocatorIcEEE5__repES5_EC2B7v160006INS_18__default_init_tagESA_EEOT_OT0_, symObjAddr: 0x101C, symBinAddr: 0x10000459C, symSize: 0x3C }
  - { offsetInCU: 0x6A27, offset: 0xCF6F, size: 0x8, addend: 0x0, symName: __ZNSt3__122__compressed_pair_elemINS_12basic_stringIcNS_11char_traitsIcEENS_9allocatorIcEEE5__repELi0ELb0EEC2B7v160006ENS_18__default_init_tagE, symObjAddr: 0x1058, symBinAddr: 0x1000045D8, symSize: 0x14 }
  - { offsetInCU: 0x6A59, offset: 0xCFA1, size: 0x8, addend: 0x0, symName: __ZNSt3__122__compressed_pair_elemINS_9allocatorIcEELi1ELb1EEC2B7v160006ENS_18__default_init_tagE, symObjAddr: 0x106C, symBinAddr: 0x1000045EC, symSize: 0x2C }
  - { offsetInCU: 0x6A8B, offset: 0xCFD3, size: 0x8, addend: 0x0, symName: __ZNSt3__19allocatorIcEC2B7v160006Ev, symObjAddr: 0x1098, symBinAddr: 0x100004618, symSize: 0x2C }
  - { offsetInCU: 0x6AB3, offset: 0xCFFB, size: 0x8, addend: 0x0, symName: __ZNSt3__116__non_trivial_ifILb1ENS_9allocatorIcEEEC2B7v160006Ev, symObjAddr: 0x10C4, symBinAddr: 0x100004644, symSize: 0x14 }
  - { offsetInCU: 0x6ADB, offset: 0xD023, size: 0x8, addend: 0x0, symName: __ZNSt3__16vectorIN3MLS4TileENS_9allocatorIS2_EEED2B7v160006Ev, symObjAddr: 0x1108, symBinAddr: 0x100004688, symSize: 0x44 }
  - { offsetInCU: 0x6B03, offset: 0xD04B, size: 0x8, addend: 0x0, symName: __ZNSt3__16vectorIN3MLS4TileENS_9allocatorIS2_EEE16__destroy_vectorC1ERS5_, symObjAddr: 0x114C, symBinAddr: 0x1000046CC, symSize: 0x34 }
  - { offsetInCU: 0x6B3A, offset: 0xD082, size: 0x8, addend: 0x0, symName: __ZNSt3__16vectorIN3MLS4TileENS_9allocatorIS2_EEE16__destroy_vectorclB7v160006Ev, symObjAddr: 0x1180, symBinAddr: 0x100004700, symSize: 0x9C }
  - { offsetInCU: 0x6B5E, offset: 0xD0A6, size: 0x8, addend: 0x0, symName: __ZNSt3__16vectorIN3MLS4TileENS_9allocatorIS2_EEE16__destroy_vectorC2ERS5_, symObjAddr: 0x121C, symBinAddr: 0x10000479C, symSize: 0x20 }
  - { offsetInCU: 0x6B95, offset: 0xD0DD, size: 0x8, addend: 0x0, symName: __ZNKSt3__16vectorIN3MLS4TileENS_9allocatorIS2_EEE17__annotate_deleteB7v160006Ev, symObjAddr: 0x123C, symBinAddr: 0x1000047BC, symSize: 0xD4 }
  - { offsetInCU: 0x6BB9, offset: 0xD101, size: 0x8, addend: 0x0, symName: __ZNSt3__16vectorIN3MLS4TileENS_9allocatorIS2_EEE7__clearB7v160006Ev, symObjAddr: 0x1320, symBinAddr: 0x1000048A0, symSize: 0x28 }
  - { offsetInCU: 0x6BDD, offset: 0xD125, size: 0x8, addend: 0x0, symName: __ZNSt3__116allocator_traitsINS_9allocatorIN3MLS4TileEEEE10deallocateB7v160006ERS4_PS3_m, symObjAddr: 0x1348, symBinAddr: 0x1000048C8, symSize: 0x34 }
  - { offsetInCU: 0x6C1E, offset: 0xD166, size: 0x8, addend: 0x0, symName: __ZNSt3__16vectorIN3MLS4TileENS_9allocatorIS2_EEE7__allocB7v160006Ev, symObjAddr: 0x137C, symBinAddr: 0x1000048FC, symSize: 0x28 }
  - { offsetInCU: 0x6C42, offset: 0xD18A, size: 0x8, addend: 0x0, symName: __ZNKSt3__16vectorIN3MLS4TileENS_9allocatorIS2_EEE8capacityB7v160006Ev, symObjAddr: 0x13A4, symBinAddr: 0x100004924, symSize: 0x40 }
  - { offsetInCU: 0x6C66, offset: 0xD1AE, size: 0x8, addend: 0x0, symName: __ZNKSt3__16vectorIN3MLS4TileENS_9allocatorIS2_EEE31__annotate_contiguous_containerB7v160006EPKvS7_S7_S7_, symObjAddr: 0x13E4, symBinAddr: 0x100004964, symSize: 0x20 }
  - { offsetInCU: 0x6CB6, offset: 0xD1FE, size: 0x8, addend: 0x0, symName: __ZNKSt3__16vectorIN3MLS4TileENS_9allocatorIS2_EEE4dataB7v160006Ev, symObjAddr: 0x1404, symBinAddr: 0x100004984, symSize: 0x28 }
  - { offsetInCU: 0x6CDA, offset: 0xD222, size: 0x8, addend: 0x0, symName: __ZNKSt3__16vectorIN3MLS4TileENS_9allocatorIS2_EEE4sizeB7v160006Ev, symObjAddr: 0x142C, symBinAddr: 0x1000049AC, symSize: 0x28 }
  - { offsetInCU: 0x6CFE, offset: 0xD246, size: 0x8, addend: 0x0, symName: __ZNSt3__16vectorIN3MLS4TileENS_9allocatorIS2_EEE22__base_destruct_at_endB7v160006EPS2_, symObjAddr: 0x1468, symBinAddr: 0x1000049E8, symSize: 0x8C }
  - { offsetInCU: 0x6D40, offset: 0xD288, size: 0x8, addend: 0x0, symName: __ZNSt3__116allocator_traitsINS_9allocatorIN3MLS4TileEEEE7destroyB7v160006IS3_vEEvRS4_PT_, symObjAddr: 0x14F4, symBinAddr: 0x100004A74, symSize: 0x2C }
  - { offsetInCU: 0x6D7C, offset: 0xD2C4, size: 0x8, addend: 0x0, symName: __ZNSt3__19allocatorIN3MLS4TileEE7destroyB7v160006EPS2_, symObjAddr: 0x1520, symBinAddr: 0x100004AA0, symSize: 0x28 }
  - { offsetInCU: 0x6DAE, offset: 0xD2F6, size: 0x8, addend: 0x0, symName: __ZNSt3__19allocatorIN3MLS4TileEE10deallocateB7v160006EPS2_m, symObjAddr: 0x1548, symBinAddr: 0x100004AC8, symSize: 0x44 }
  - { offsetInCU: 0x6DEE, offset: 0xD336, size: 0x8, addend: 0x0, symName: __ZNSt3__117__compressed_pairIPN3MLS4TileENS_9allocatorIS2_EEE6secondB7v160006Ev, symObjAddr: 0x1608, symBinAddr: 0x100004B88, symSize: 0x24 }
  - { offsetInCU: 0x6E12, offset: 0xD35A, size: 0x8, addend: 0x0, symName: __ZNSt3__122__compressed_pair_elemINS_9allocatorIN3MLS4TileEEELi1ELb1EE5__getB7v160006Ev, symObjAddr: 0x162C, symBinAddr: 0x100004BAC, symSize: 0x14 }
  - { offsetInCU: 0x6E36, offset: 0xD37E, size: 0x8, addend: 0x0, symName: __ZNKSt3__16vectorIN3MLS4TileENS_9allocatorIS2_EEE9__end_capB7v160006Ev, symObjAddr: 0x1640, symBinAddr: 0x100004BC0, symSize: 0x28 }
  - { offsetInCU: 0x6E5A, offset: 0xD3A2, size: 0x8, addend: 0x0, symName: __ZNKSt3__117__compressed_pairIPN3MLS4TileENS_9allocatorIS2_EEE5firstB7v160006Ev, symObjAddr: 0x1668, symBinAddr: 0x100004BE8, symSize: 0x24 }
  - { offsetInCU: 0x6E7E, offset: 0xD3C6, size: 0x8, addend: 0x0, symName: __ZNKSt3__122__compressed_pair_elemIPN3MLS4TileELi0ELb0EE5__getB7v160006Ev, symObjAddr: 0x168C, symBinAddr: 0x100004C0C, symSize: 0x14 }
  - { offsetInCU: 0x6EA2, offset: 0xD3EA, size: 0x8, addend: 0x0, symName: __ZNSt3__16vectorIN3MLS4TileENS_9allocatorIS2_EEE11__make_iterB7v160006EPS2_, symObjAddr: 0x16A0, symBinAddr: 0x100004C20, symSize: 0x34 }
  - { offsetInCU: 0x6ED5, offset: 0xD41D, size: 0x8, addend: 0x0, symName: __ZNSt3__111__wrap_iterIPN3MLS4TileEEC1B7v160006EPKvS3_, symObjAddr: 0x16D4, symBinAddr: 0x100004C54, symSize: 0x3C }
  - { offsetInCU: 0x6F19, offset: 0xD461, size: 0x8, addend: 0x0, symName: __ZNSt3__111__wrap_iterIPN3MLS4TileEEC2B7v160006EPKvS3_, symObjAddr: 0x1710, symBinAddr: 0x100004C90, symSize: 0x24 }
  - { offsetInCU: 0x6F6C, offset: 0xD4B4, size: 0x8, addend: 0x0, symName: '__ZZNK3MLS6Player8evaluateENSt3__16vectorINS_4TileENS1_9allocatorIS3_EEEEENK3$_0clERKS3_', symObjAddr: 0x1768, symBinAddr: 0x100004CE8, symSize: 0x3C }
  - { offsetInCU: 0x6FA2, offset: 0xD4EA, size: 0x8, addend: 0x0, symName: __ZNKSt3__111__wrap_iterIPN3MLS4TileEEdeB7v160006Ev, symObjAddr: 0x17A4, symBinAddr: 0x100004D24, symSize: 0x18 }
  - { offsetInCU: 0x6FC6, offset: 0xD50E, size: 0x8, addend: 0x0, symName: __ZNSt3__111__wrap_iterIPN3MLS4TileEEppB7v160006Ev, symObjAddr: 0x17BC, symBinAddr: 0x100004D3C, symSize: 0x20 }
  - { offsetInCU: 0x6FEA, offset: 0xD532, size: 0x8, addend: 0x0, symName: __ZNKSt3__111__wrap_iterIPN3MLS4TileEE4baseB7v160006Ev, symObjAddr: 0x1824, symBinAddr: 0x100004DA4, symSize: 0x18 }
  - { offsetInCU: 0x700E, offset: 0xD556, size: 0x8, addend: 0x0, symName: __ZNKSt3__112basic_stringIcNS_11char_traitsIcEENS_9allocatorIcEEE4sizeB7v160006Ev, symObjAddr: 0x1984, symBinAddr: 0x100004F04, symSize: 0x54 }
  - { offsetInCU: 0x7032, offset: 0xD57A, size: 0x8, addend: 0x0, symName: __ZNKSt3__112basic_stringIcNS_11char_traitsIcEENS_9allocatorIcEEE4dataB7v160006Ev, symObjAddr: 0x19D8, symBinAddr: 0x100004F58, symSize: 0x28 }
  - { offsetInCU: 0x7056, offset: 0xD59E, size: 0x8, addend: 0x0, symName: __ZNKSt3__112basic_stringIcNS_11char_traitsIcEENS_9allocatorIcEEE9__is_longB7v160006Ev, symObjAddr: 0x1A00, symBinAddr: 0x100004F80, symSize: 0x38 }
  - { offsetInCU: 0x707A, offset: 0xD5C2, size: 0x8, addend: 0x0, symName: __ZNSt3__111char_traitsIcE7compareEPKcS3_m, symObjAddr: 0x1A38, symBinAddr: 0x100004FB8, symSize: 0x6C }
  - { offsetInCU: 0x70B8, offset: 0xD600, size: 0x8, addend: 0x0, symName: __ZNKSt3__112basic_stringIcNS_11char_traitsIcEENS_9allocatorIcEEE15__get_long_sizeB7v160006Ev, symObjAddr: 0x1AA4, symBinAddr: 0x100005024, symSize: 0x28 }
  - { offsetInCU: 0x70DC, offset: 0xD624, size: 0x8, addend: 0x0, symName: __ZNKSt3__112basic_stringIcNS_11char_traitsIcEENS_9allocatorIcEEE16__get_short_sizeB7v160006Ev, symObjAddr: 0x1ACC, symBinAddr: 0x10000504C, symSize: 0x34 }
  - { offsetInCU: 0x7100, offset: 0xD648, size: 0x8, addend: 0x0, symName: __ZNKSt3__117__compressed_pairINS_12basic_stringIcNS_11char_traitsIcEENS_9allocatorIcEEE5__repES5_E5firstB7v160006Ev, symObjAddr: 0x1B00, symBinAddr: 0x100005080, symSize: 0x24 }
  - { offsetInCU: 0x7124, offset: 0xD66C, size: 0x8, addend: 0x0, symName: __ZNKSt3__122__compressed_pair_elemINS_12basic_stringIcNS_11char_traitsIcEENS_9allocatorIcEEE5__repELi0ELb0EE5__getB7v160006Ev, symObjAddr: 0x1B24, symBinAddr: 0x1000050A4, symSize: 0x14 }
  - { offsetInCU: 0x7148, offset: 0xD690, size: 0x8, addend: 0x0, symName: __ZNKSt3__112basic_stringIcNS_11char_traitsIcEENS_9allocatorIcEEE13__get_pointerB7v160006Ev, symObjAddr: 0x1B4C, symBinAddr: 0x1000050CC, symSize: 0x54 }
  - { offsetInCU: 0x716C, offset: 0xD6B4, size: 0x8, addend: 0x0, symName: __ZNKSt3__112basic_stringIcNS_11char_traitsIcEENS_9allocatorIcEEE18__get_long_pointerB7v160006Ev, symObjAddr: 0x1BA0, symBinAddr: 0x100005120, symSize: 0x28 }
  - { offsetInCU: 0x7190, offset: 0xD6D8, size: 0x8, addend: 0x0, symName: __ZNKSt3__112basic_stringIcNS_11char_traitsIcEENS_9allocatorIcEEE19__get_short_pointerB7v160006Ev, symObjAddr: 0x1BC8, symBinAddr: 0x100005148, symSize: 0x28 }
  - { offsetInCU: 0x71B4, offset: 0xD6FC, size: 0x8, addend: 0x0, symName: __ZNSt3__114pointer_traitsIPKcE10pointer_toB7v160006ERS1_, symObjAddr: 0x1BF0, symBinAddr: 0x100005170, symSize: 0x14 }
  - { offsetInCU: 0x71E0, offset: 0xD728, size: 0x8, addend: 0x0, symName: '__ZZNK3MLS6Player8evaluateENSt3__16vectorINS_4TileENS1_9allocatorIS3_EEEEENK3$_1clERKS3_', symObjAddr: 0x1C38, symBinAddr: 0x1000051B8, symSize: 0x40 }
  - { offsetInCU: 0x7220, offset: 0xD768, size: 0x8, addend: 0x0, symName: '__ZZNK3MLS6Player8evaluateENSt3__16vectorINS_4TileENS1_9allocatorIS3_EEEEENK3$_2clERKS3_', symObjAddr: 0x1C78, symBinAddr: 0x1000051F8, symSize: 0x38 }
  - { offsetInCU: 0x7260, offset: 0xD7A8, size: 0x8, addend: 0x0, symName: '__ZZNK3MLS6Player6winnerEvENK3$_3clERKNS_4TileE', symObjAddr: 0x1D5C, symBinAddr: 0x1000052DC, symSize: 0x3C }
  - { offsetInCU: 0x72A0, offset: 0xD7E8, size: 0x8, addend: 0x0, symName: '__ZZNK3MLS6Player6winnerEvENK3$_4clERKNS_4TileE', symObjAddr: 0x1D98, symBinAddr: 0x100005318, symSize: 0x3C }
  - { offsetInCU: 0x72E0, offset: 0xD828, size: 0x8, addend: 0x0, symName: '__ZZNK3MLS6Player6winnerEvENK3$_5clERKNS_4TileE', symObjAddr: 0x1DD4, symBinAddr: 0x100005354, symSize: 0x3C }
  - { offsetInCU: 0x7320, offset: 0xD868, size: 0x8, addend: 0x0, symName: '__ZZNK3MLS6Player6winnerEvENK3$_6clERKNS_4TileE', symObjAddr: 0x1E10, symBinAddr: 0x100005390, symSize: 0x3C }
  - { offsetInCU: 0x65A7, offset: 0x13EB3, size: 0x8, addend: 0x0, symName: '__ZNSt3__18count_ifB7v160006INS_11__wrap_iterIPKN3MLS4TileEEEZNKS2_5Board4fullEvE3$_0EENS_15iterator_traitsIT_E15difference_typeESA_SA_T0_', symObjAddr: 0xAC8, symBinAddr: 0x100005EC0, symSize: 0x7C }
  - { offsetInCU: 0x660F, offset: 0x13F1B, size: 0x8, addend: 0x0, symName: __ZNSt3__1plB7v160006IcNS_11char_traitsIcEENS_9allocatorIcEEEENS_12basic_stringIT_T0_T1_EEOS9_SA_, symObjAddr: 0x12A8, symBinAddr: 0x1000066A0, symSize: 0x40 }
  - { offsetInCU: 0x6667, offset: 0x13F73, size: 0x8, addend: 0x0, symName: __ZNSt3__119__debug_db_insert_cB7v160006INS_6vectorIN3MLS4TileENS_9allocatorIS3_EEEEEEvPT_, symObjAddr: 0x1660, symBinAddr: 0x100006808, symSize: 0x10 }
  - { offsetInCU: 0x6698, offset: 0x13FA4, size: 0x8, addend: 0x0, symName: __ZNSt3__122__make_exception_guardB7v160006INS_6vectorIN3MLS4TileENS_9allocatorIS3_EEE16__destroy_vectorEEENS_28__exception_guard_exceptionsIT_EES9_, symObjAddr: 0x1DB4, symBinAddr: 0x1000069C4, symSize: 0x40 }
  - { offsetInCU: 0x66CD, offset: 0x13FD9, size: 0x8, addend: 0x0, symName: __ZNSt3__119__allocate_at_leastB7v160006INS_9allocatorIN3MLS4TileEEEEENS_19__allocation_resultINS_16allocator_traitsIT_E7pointerEEERS7_m, symObjAddr: 0x2094, symBinAddr: 0x100006CA4, symSize: 0x40 }
  - { offsetInCU: 0x6710, offset: 0x1401C, size: 0x8, addend: 0x0, symName: __ZNSt3__13minB7v160006ImEERKT_S3_S3_, symObjAddr: 0x21C4, symBinAddr: 0x100006DD4, symSize: 0x2C }
  - { offsetInCU: 0x6967, offset: 0x14273, size: 0x8, addend: 0x0, symName: __ZNSt3__13minB7v160006ImNS_6__lessImmEEEERKT_S5_S5_T0_, symObjAddr: 0x2250, symBinAddr: 0x100006E60, symSize: 0x54 }
  - { offsetInCU: 0x69FC, offset: 0x14308, size: 0x8, addend: 0x0, symName: __ZNSt3__120__throw_length_errorB7v160006EPKc, symObjAddr: 0x2330, symBinAddr: 0x100006F40, symSize: 0x64 }
  - { offsetInCU: 0x6A25, offset: 0x14331, size: 0x8, addend: 0x0, symName: __ZNSt3__117__libcpp_allocateB7v160006Emm, symObjAddr: 0x24A4, symBinAddr: 0x1000070B4, symSize: 0x28 }
  - { offsetInCU: 0x6A62, offset: 0x1436E, size: 0x8, addend: 0x0, symName: __ZNSt3__121__libcpp_operator_newB7v160006IJmEEEPvDpT_, symObjAddr: 0x24CC, symBinAddr: 0x1000070DC, symSize: 0x24 }
  - { offsetInCU: 0x6A9B, offset: 0x143A7, size: 0x8, addend: 0x0, symName: __ZNSt3__115__debug_db_swapB7v160006INS_6vectorIN3MLS4TileENS_9allocatorIS3_EEEEEEvPT_S8_, symObjAddr: 0x289C, symBinAddr: 0x1000074AC, symSize: 0x14 }
  - { offsetInCU: 0x6ADA, offset: 0x143E6, size: 0x8, addend: 0x0, symName: __ZNSt3__125__debug_db_invalidate_allB7v160006INS_6vectorIN3MLS4TileENS_9allocatorIS3_EEEEEEvPT_, symObjAddr: 0x29D4, symBinAddr: 0x1000075E4, symSize: 0x10 }
  - { offsetInCU: 0x6B3E, offset: 0x1444A, size: 0x8, addend: 0x0, symName: __ZNSt3__13maxB7v160006ImEERKT_S3_S3_, symObjAddr: 0x3194, symBinAddr: 0x100007D34, symSize: 0x2C }
  - { offsetInCU: 0x6B81, offset: 0x1448D, size: 0x8, addend: 0x0, symName: __ZNSt3__13maxB7v160006ImNS_6__lessImmEEEERKT_S5_S5_T0_, symObjAddr: 0x31C0, symBinAddr: 0x100007D60, symSize: 0x54 }
  - { offsetInCU: 0x6BDB, offset: 0x144E7, size: 0x8, addend: 0x0, symName: __ZNSt3__142__uninitialized_allocator_move_if_noexceptB7v160006INS_9allocatorIN3MLS4TileEEENS_16reverse_iteratorIPS3_EES7_S7_EET2_RT_T0_T1_S8_, symObjAddr: 0x344C, symBinAddr: 0x100007FEC, symSize: 0x12C }
  - { offsetInCU: 0x6C7B, offset: 0x14587, size: 0x8, addend: 0x0, symName: __ZNSt3__14swapB7v160006IPN3MLS4TileEEENS_9enable_ifIXaasr21is_move_constructibleIT_EE5valuesr18is_move_assignableIS5_EE5valueEvE4typeERS5_S8_, symObjAddr: 0x35C4, symBinAddr: 0x100008164, symSize: 0x3C }
  - { offsetInCU: 0x6CCC, offset: 0x145D8, size: 0x8, addend: 0x0, symName: __ZNSt3__122__make_exception_guardB7v160006INS_29_AllocatorDestroyRangeReverseINS_9allocatorIN3MLS4TileEEENS_16reverse_iteratorIPS4_EEEEEENS_28__exception_guard_exceptionsIT_EESB_, symObjAddr: 0x3600, symBinAddr: 0x1000081A0, symSize: 0x4C }
  - { offsetInCU: 0x6D02, offset: 0x1460E, size: 0x8, addend: 0x0, symName: __ZNSt3__1neB7v160006IPN3MLS4TileES3_EEbRKNS_16reverse_iteratorIT_EERKNS4_IT0_EE, symObjAddr: 0x3690, symBinAddr: 0x100008230, symSize: 0x48 }
  - { offsetInCU: 0x6D4E, offset: 0x1465A, size: 0x8, addend: 0x0, symName: __ZNSt3__112__to_addressB7v160006INS_16reverse_iteratorIPN3MLS4TileEEEvEENS_5decayIDTclsr19__to_address_helperIT_EE6__callclsr3stdE7declvalIRKS7_EEEEE4typeES9_, symObjAddr: 0x370C, symBinAddr: 0x1000082AC, symSize: 0x24 }
  - { offsetInCU: 0x6D84, offset: 0x14690, size: 0x8, addend: 0x0, symName: __ZNSt3__115__debug_db_swapB7v160006INS_12basic_stringIcNS_11char_traitsIcEENS_9allocatorIcEEEEEEvPT_S8_, symObjAddr: 0x3A0C, symBinAddr: 0x1000085AC, symSize: 0x14 }
  - { offsetInCU: 0x6DED, offset: 0x146F9, size: 0x8, addend: 0x0, symName: __ZNSt3__119__allocator_destroyB7v160006INS_9allocatorIN3MLS4TileEEENS_16reverse_iteratorINS5_IPS3_EEEES8_EEvRT_T0_T1_, symObjAddr: 0x3B80, symBinAddr: 0x100008720, symSize: 0x70 }
  - { offsetInCU: 0x6E52, offset: 0x1475E, size: 0x8, addend: 0x0, symName: __ZNSt3__1neB7v160006INS_16reverse_iteratorIPN3MLS4TileEEES5_EEbRKNS1_IT_EERKNS1_IT0_EE, symObjAddr: 0x3C2C, symBinAddr: 0x1000087CC, symSize: 0x60 }
  - { offsetInCU: 0x6E9E, offset: 0x147AA, size: 0x8, addend: 0x0, symName: __ZNSt3__112__to_addressB7v160006INS_16reverse_iteratorINS1_IPN3MLS4TileEEEEEvEENS_5decayIDTclsr19__to_address_helperIT_EE6__callclsr3stdE7declvalIRKS8_EEEEE4typeESA_, symObjAddr: 0x3C8C, symBinAddr: 0x10000882C, symSize: 0x24 }
  - { offsetInCU: 0x6EFE, offset: 0x1480A, size: 0x8, addend: 0x0, symName: __ZNSt3__119__debug_db_insert_cB7v160006INS_6vectorIiNS_9allocatorIiEEEEEEvPT_, symObjAddr: 0x4088, symBinAddr: 0x100008C28, symSize: 0x10 }
  - { offsetInCU: 0x6F2F, offset: 0x1483B, size: 0x8, addend: 0x0, symName: __ZNSt3__118__debug_db_erase_cB7v160006INS_6vectorIiNS_9allocatorIiEEEEEEvPT_, symObjAddr: 0x434C, symBinAddr: 0x100008EEC, symSize: 0x10 }
  - { offsetInCU: 0x6F60, offset: 0x1486C, size: 0x8, addend: 0x0, symName: __ZNSt3__112__to_addressB7v160006IiEEPT_S2_, symObjAddr: 0x4490, symBinAddr: 0x100009030, symSize: 0x14 }
  - { offsetInCU: 0x6F95, offset: 0x148A1, size: 0x8, addend: 0x0, symName: __ZNSt3__119__allocate_at_leastB7v160006INS_9allocatorIiEEEENS_19__allocation_resultINS_16allocator_traitsIT_E7pointerEEERS5_m, symObjAddr: 0x4D98, symBinAddr: 0x100009938, symSize: 0x40 }
  - { offsetInCU: 0x6FD8, offset: 0x148E4, size: 0x8, addend: 0x0, symName: __ZNSt3__142__uninitialized_allocator_move_if_noexceptB7v160006INS_9allocatorIiEENS_16reverse_iteratorIPiEES5_ivEET1_RT_T0_S9_S6_, symObjAddr: 0x4F4C, symBinAddr: 0x100009AEC, symSize: 0x78 }
  - { offsetInCU: 0x7055, offset: 0x14961, size: 0x8, addend: 0x0, symName: __ZNSt3__14swapB7v160006IPiEENS_9enable_ifIXaasr21is_move_constructibleIT_EE5valuesr18is_move_assignableIS3_EE5valueEvE4typeERS3_S6_, symObjAddr: 0x5010, symBinAddr: 0x100009BB0, symSize: 0x3C }
  - { offsetInCU: 0x70A6, offset: 0x149B2, size: 0x8, addend: 0x0, symName: __ZNSt3__125__debug_db_invalidate_allB7v160006INS_6vectorIiNS_9allocatorIiEEEEEEvPT_, symObjAddr: 0x50F8, symBinAddr: 0x100009C98, symSize: 0x10 }
  - { offsetInCU: 0x70D7, offset: 0x149E3, size: 0x8, addend: 0x0, symName: __ZNSt3__14moveB7v160006INS_16reverse_iteratorIPiEES3_EET0_T_S5_S4_, symObjAddr: 0x5108, symBinAddr: 0x100009CA8, symSize: 0x78 }
  - { offsetInCU: 0x7131, offset: 0x14A3D, size: 0x8, addend: 0x0, symName: __ZNSt3__16__moveB7v160006INS_17_ClassicAlgPolicyENS_16reverse_iteratorIPiEES4_S4_EENS_4pairIT0_T2_EES6_T1_S7_, symObjAddr: 0x5180, symBinAddr: 0x100009D20, symSize: 0x64 }
  - { offsetInCU: 0x719D, offset: 0x14AA9, size: 0x8, addend: 0x0, symName: __ZNSt3__123__dispatch_copy_or_moveB7v160006INS_17_ClassicAlgPolicyENS_11__move_loopIS1_EENS_14__move_trivialENS_16reverse_iteratorIPiEES7_S7_EENS_4pairIT2_T4_EES9_T3_SA_, symObjAddr: 0x51E4, symBinAddr: 0x100009D84, symSize: 0x64 }
  - { offsetInCU: 0x721B, offset: 0x14B27, size: 0x8, addend: 0x0, symName: __ZNSt3__121__unwrap_and_dispatchB7v160006INS_10__overloadINS_11__move_loopINS_17_ClassicAlgPolicyEEENS_14__move_trivialEEENS_16reverse_iteratorIPiEES9_S9_Li0EEENS_4pairIT0_T2_EESB_T1_SC_, symObjAddr: 0x5248, symBinAddr: 0x100009DE8, symSize: 0x12C }
  - { offsetInCU: 0x72AC, offset: 0x14BB8, size: 0x8, addend: 0x0, symName: __ZNSt3__114__unwrap_rangeB7v160006INS_16reverse_iteratorIPiEES3_EENS_4pairIT0_S5_EET_S7_, symObjAddr: 0x5374, symBinAddr: 0x100009F14, symSize: 0x84 }
  - { offsetInCU: 0x7427, offset: 0x14D33, size: 0x8, addend: 0x0, symName: __ZNSt3__113__unwrap_iterB7v160006INS_16reverse_iteratorIPiEENS_18__unwrap_iter_implIS3_Lb0EEELi0EEEDTclsrT0_8__unwrapclsr3stdE7declvalIT_EEEES7_, symObjAddr: 0x5498, symBinAddr: 0x10000A038, symSize: 0x44 }
  - { offsetInCU: 0x746C, offset: 0x14D78, size: 0x8, addend: 0x0, symName: __ZNSt3__19make_pairB7v160006INS_16reverse_iteratorIPiEES3_EENS_4pairINS_18__unwrap_ref_decayIT_E4typeENS5_IT0_E4typeEEEOS6_OS9_, symObjAddr: 0x54DC, symBinAddr: 0x10000A07C, symSize: 0x38 }
  - { offsetInCU: 0x74BB, offset: 0x14DC7, size: 0x8, addend: 0x0, symName: __ZNSt3__114__rewrap_rangeB7v160006INS_16reverse_iteratorIPiEES3_EET_S4_T0_, symObjAddr: 0x5514, symBinAddr: 0x10000A0B4, symSize: 0x5C }
  - { offsetInCU: 0x7507, offset: 0x14E13, size: 0x8, addend: 0x0, symName: __ZNSt3__113__rewrap_iterB7v160006INS_16reverse_iteratorIPiEES3_NS_18__unwrap_iter_implIS3_Lb0EEEEET_S6_T0_, symObjAddr: 0x5570, symBinAddr: 0x10000A110, symSize: 0x74 }
  - { offsetInCU: 0x755C, offset: 0x14E68, size: 0x8, addend: 0x0, symName: __ZNSt3__1neB7v160006IPiS1_EEbRKNS_16reverse_iteratorIT_EERKNS2_IT0_EE, symObjAddr: 0x55E4, symBinAddr: 0x10000A184, symSize: 0x48 }
  - { offsetInCU: 0x765A, offset: 0x14F66, size: 0x8, addend: 0x0, symName: __ZNSt3__1neB7v160006IPKN3MLS4TileEEEbRKNS_11__wrap_iterIT_EES9_, symObjAddr: 0x5A08, symBinAddr: 0x10000A5A8, symSize: 0x34 }
  - { offsetInCU: 0x769D, offset: 0x14FA9, size: 0x8, addend: 0x0, symName: __ZNSt3__1eqB7v160006IPKN3MLS4TileEEEbRKNS_11__wrap_iterIT_EES9_, symObjAddr: 0x5AAC, symBinAddr: 0x10000A64C, symSize: 0x48 }
  - { offsetInCU: 0x79D1, offset: 0x152DD, size: 0x8, addend: 0x0, symName: __ZSt28__throw_bad_array_new_lengthB7v160006v, symObjAddr: 0x2470, symBinAddr: 0x100007080, symSize: 0x34 }
  - { offsetInCU: 0x7D09, offset: 0x15615, size: 0x8, addend: 0x0, symName: __ZNSt3__16vectorIN3MLS4TileENS_9allocatorIS2_EEE26__swap_out_circular_bufferERNS_14__split_bufferIS2_RS4_EE, symObjAddr: 0x3050, symBinAddr: 0x100007BF0, symSize: 0x118 }
  - { offsetInCU: 0x7F1B, offset: 0x15827, size: 0x8, addend: 0x0, symName: __ZNSt3__16vectorIiNS_9allocatorIiEEE26__swap_out_circular_bufferERNS_14__split_bufferIiRS2_EE, symObjAddr: 0x4A30, symBinAddr: 0x1000095D0, symSize: 0x118 }
  - { offsetInCU: 0x9D2C, offset: 0x17638, size: 0x8, addend: 0x0, symName: __ZN3MLS5BoardC2Eii, symObjAddr: 0x0, symBinAddr: 0x100005504, symSize: 0x2D4 }
  - { offsetInCU: 0x9DC0, offset: 0x176CC, size: 0x8, addend: 0x0, symName: __ZNSt3__16vectorIN3MLS4TileENS_9allocatorIS2_EEEC1B7v160006Ev, symObjAddr: 0x2D4, symBinAddr: 0x1000057D8, symSize: 0x2C }
  - { offsetInCU: 0x9DE8, offset: 0x176F4, size: 0x8, addend: 0x0, symName: __ZNSt3__16vectorIN3MLS4TileENS_9allocatorIS2_EEEC1EmRKS2_, symObjAddr: 0x300, symBinAddr: 0x100005804, symSize: 0x3C }
  - { offsetInCU: 0x9E31, offset: 0x1773D, size: 0x8, addend: 0x0, symName: __ZNSt3__16vectorIN3MLS4TileENS_9allocatorIS2_EEEaSB7v160006EOS5_, symObjAddr: 0x33C, symBinAddr: 0x100005840, symSize: 0x34 }
  - { offsetInCU: 0x9E71, offset: 0x1777D, size: 0x8, addend: 0x0, symName: __ZN3MLS4TileaSEOS0_, symObjAddr: 0x428, symBinAddr: 0x100005874, symSize: 0x54 }
  - { offsetInCU: 0x9E9E, offset: 0x177AA, size: 0x8, addend: 0x0, symName: __ZN3MLS5BoardC1Eii, symObjAddr: 0x47C, symBinAddr: 0x1000058C8, symSize: 0x3C }
  - { offsetInCU: 0x9EE5, offset: 0x177F1, size: 0x8, addend: 0x0, symName: __ZN3MLS5Board11add_playersEPNS_6PlayerES2_, symObjAddr: 0x4B8, symBinAddr: 0x100005904, symSize: 0x8C }
  - { offsetInCU: 0x9F27, offset: 0x17833, size: 0x8, addend: 0x0, symName: __ZNK3MLS5Board13is_valid_moveEi, symObjAddr: 0x598, symBinAddr: 0x100005990, symSize: 0xBC }
  - { offsetInCU: 0x9F5A, offset: 0x17866, size: 0x8, addend: 0x0, symName: __ZNKSt3__16vectorIN3MLS4TileENS_9allocatorIS2_EEEixB7v160006Em, symObjAddr: 0x654, symBinAddr: 0x100005A4C, symSize: 0x2C }
  - { offsetInCU: 0x9F90, offset: 0x1789C, size: 0x8, addend: 0x0, symName: __ZNK3MLS5Board14get_alignementEiiii, symObjAddr: 0x680, symBinAddr: 0x100005A78, symSize: 0x1B4 }
  - { offsetInCU: 0xA032, offset: 0x1793E, size: 0x8, addend: 0x0, symName: __ZNSt3__16vectorIN3MLS4TileENS_9allocatorIS2_EEE9push_backB7v160006ERKS2_, symObjAddr: 0x834, symBinAddr: 0x100005C2C, symSize: 0x6C }
  - { offsetInCU: 0xA068, offset: 0x17974, size: 0x8, addend: 0x0, symName: __ZNK3MLS5Board15get_valid_movesEv, symObjAddr: 0x8A0, symBinAddr: 0x100005C98, symSize: 0x10C }
  - { offsetInCU: 0xA0B0, offset: 0x179BC, size: 0x8, addend: 0x0, symName: __ZNSt3__16vectorIiNS_9allocatorIiEEEC1B7v160006Ev, symObjAddr: 0x9AC, symBinAddr: 0x100005DA4, symSize: 0x2C }
  - { offsetInCU: 0xA0D8, offset: 0x179E4, size: 0x8, addend: 0x0, symName: __ZNSt3__16vectorIiNS_9allocatorIiEEE9push_backB7v160006ERKi, symObjAddr: 0x9D8, symBinAddr: 0x100005DD0, symSize: 0x6C }
  - { offsetInCU: 0xA10D, offset: 0x17A19, size: 0x8, addend: 0x0, symName: __ZNSt3__16vectorIiNS_9allocatorIiEEED1B7v160006Ev, symObjAddr: 0xA44, symBinAddr: 0x100005E3C, symSize: 0x2C }
  - { offsetInCU: 0xA136, offset: 0x17A42, size: 0x8, addend: 0x0, symName: __ZNK3MLS5Board4fullEv, symObjAddr: 0xA70, symBinAddr: 0x100005E68, symSize: 0x58 }
  - { offsetInCU: 0xA178, offset: 0x17A84, size: 0x8, addend: 0x0, symName: __ZNKSt3__16vectorIN3MLS4TileENS_9allocatorIS2_EEE5beginB7v160006Ev, symObjAddr: 0xB44, symBinAddr: 0x100005F3C, symSize: 0x30 }
  - { offsetInCU: 0xA19E, offset: 0x17AAA, size: 0x8, addend: 0x0, symName: __ZNKSt3__16vectorIN3MLS4TileENS_9allocatorIS2_EEE3endB7v160006Ev, symObjAddr: 0xB74, symBinAddr: 0x100005F6C, symSize: 0x30 }
  - { offsetInCU: 0xA1C5, offset: 0x17AD1, size: 0x8, addend: 0x0, symName: __ZN3MLS5Board7displayEv, symObjAddr: 0xBA4, symBinAddr: 0x100005F9C, symSize: 0x6AC }
  - { offsetInCU: 0xA296, offset: 0x17BA2, size: 0x8, addend: 0x0, symName: __ZNSt3__112basic_stringIcNS_11char_traitsIcEENS_9allocatorIcEEEC1B7v160006Ev, symObjAddr: 0x1250, symBinAddr: 0x100006648, symSize: 0x2C }
  - { offsetInCU: 0xA2BF, offset: 0x17BCB, size: 0x8, addend: 0x0, symName: __ZNSt3__112basic_stringIcNS_11char_traitsIcEENS_9allocatorIcEEEaSB7v160006EPKc, symObjAddr: 0x127C, symBinAddr: 0x100006674, symSize: 0x2C }
  - { offsetInCU: 0xA2F1, offset: 0x17BFD, size: 0x8, addend: 0x0, symName: __ZNSt3__112basic_stringIcNS_11char_traitsIcEENS_9allocatorIcEEEC1B7v160006Emc, symObjAddr: 0x133C, symBinAddr: 0x1000066E0, symSize: 0x3C }
  - { offsetInCU: 0xA338, offset: 0x17C44, size: 0x8, addend: 0x0, symName: __ZNSt3__112basic_stringIcNS_11char_traitsIcEENS_9allocatorIcEEEaSB7v160006EOS5_, symObjAddr: 0x1378, symBinAddr: 0x10000671C, symSize: 0x34 }
  - { offsetInCU: 0xA36B, offset: 0x17C77, size: 0x8, addend: 0x0, symName: __ZNKSt3__112basic_stringIcNS_11char_traitsIcEENS_9allocatorIcEEE5c_strB7v160006Ev, symObjAddr: 0x13AC, symBinAddr: 0x100006750, symSize: 0x24 }
  - { offsetInCU: 0xA393, offset: 0x17C9F, size: 0x8, addend: 0x0, symName: __ZNSt3__16vectorIN3MLS4TileENS_9allocatorIS2_EEEC2B7v160006Ev, symObjAddr: 0x15CC, symBinAddr: 0x100006774, symSize: 0x58 }
  - { offsetInCU: 0xA3C0, offset: 0x17CCC, size: 0x8, addend: 0x0, symName: __ZNSt3__117__compressed_pairIPN3MLS4TileENS_9allocatorIS2_EEEC1B7v160006IDnNS_18__default_init_tagEEEOT_OT0_, symObjAddr: 0x1624, symBinAddr: 0x1000067CC, symSize: 0x3C }
  - { offsetInCU: 0xA416, offset: 0x17D22, size: 0x8, addend: 0x0, symName: __ZNSt3__117__compressed_pairIPN3MLS4TileENS_9allocatorIS2_EEEC2B7v160006IDnNS_18__default_init_tagEEEOT_OT0_, symObjAddr: 0x1670, symBinAddr: 0x100006818, symSize: 0x40 }
  - { offsetInCU: 0xA46D, offset: 0x17D79, size: 0x8, addend: 0x0, symName: __ZNSt3__122__compressed_pair_elemIPN3MLS4TileELi0ELb0EEC2B7v160006IDnvEEOT_, symObjAddr: 0x16B0, symBinAddr: 0x100006858, symSize: 0x1C }
  - { offsetInCU: 0xA4AC, offset: 0x17DB8, size: 0x8, addend: 0x0, symName: __ZNSt3__122__compressed_pair_elemINS_9allocatorIN3MLS4TileEEELi1ELb1EEC2B7v160006ENS_18__default_init_tagE, symObjAddr: 0x16CC, symBinAddr: 0x100006874, symSize: 0x2C }
  - { offsetInCU: 0xA4DE, offset: 0x17DEA, size: 0x8, addend: 0x0, symName: __ZNSt3__19allocatorIN3MLS4TileEEC2B7v160006Ev, symObjAddr: 0x16F8, symBinAddr: 0x1000068A0, symSize: 0x2C }
  - { offsetInCU: 0xA507, offset: 0x17E13, size: 0x8, addend: 0x0, symName: __ZNSt3__116__non_trivial_ifILb1ENS_9allocatorIN3MLS4TileEEEEC2B7v160006Ev, symObjAddr: 0x1724, symBinAddr: 0x1000068CC, symSize: 0x14 }
  - { offsetInCU: 0xA52E, offset: 0x17E3A, size: 0x8, addend: 0x0, symName: __ZNSt3__16vectorIN3MLS4TileENS_9allocatorIS2_EEEC2EmRKS2_, symObjAddr: 0x1CD0, symBinAddr: 0x1000068E0, symSize: 0xE4 }
  - { offsetInCU: 0xA58D, offset: 0x17E99, size: 0x8, addend: 0x0, symName: __ZNSt3__16vectorIN3MLS4TileENS_9allocatorIS2_EEE11__vallocateB7v160006Em, symObjAddr: 0x1DF4, symBinAddr: 0x100006A04, symSize: 0xB4 }
  - { offsetInCU: 0xA5CE, offset: 0x17EDA, size: 0x8, addend: 0x0, symName: __ZNSt3__16vectorIN3MLS4TileENS_9allocatorIS2_EEE18__construct_at_endEmRKS2_, symObjAddr: 0x1EA8, symBinAddr: 0x100006AB8, symSize: 0xD0 }
  - { offsetInCU: 0xA64E, offset: 0x17F5A, size: 0x8, addend: 0x0, symName: __ZNSt3__128__exception_guard_exceptionsINS_6vectorIN3MLS4TileENS_9allocatorIS3_EEE16__destroy_vectorEE10__completeB7v160006Ev, symObjAddr: 0x1F78, symBinAddr: 0x100006B88, symSize: 0x1C }
  - { offsetInCU: 0xA671, offset: 0x17F7D, size: 0x8, addend: 0x0, symName: __ZNSt3__128__exception_guard_exceptionsINS_6vectorIN3MLS4TileENS_9allocatorIS3_EEE16__destroy_vectorEED1B7v160006Ev, symObjAddr: 0x1F94, symBinAddr: 0x100006BA4, symSize: 0x2C }
  - { offsetInCU: 0xA699, offset: 0x17FA5, size: 0x8, addend: 0x0, symName: __ZNSt3__128__exception_guard_exceptionsINS_6vectorIN3MLS4TileENS_9allocatorIS3_EEE16__destroy_vectorEEC1B7v160006ES7_, symObjAddr: 0x1FC0, symBinAddr: 0x100006BD0, symSize: 0x34 }
  - { offsetInCU: 0xA6D0, offset: 0x17FDC, size: 0x8, addend: 0x0, symName: __ZNSt3__128__exception_guard_exceptionsINS_6vectorIN3MLS4TileENS_9allocatorIS3_EEE16__destroy_vectorEEC2B7v160006ES7_, symObjAddr: 0x1FF4, symBinAddr: 0x100006C04, symSize: 0x24 }
  - { offsetInCU: 0xA705, offset: 0x18011, size: 0x8, addend: 0x0, symName: __ZNKSt3__16vectorIN3MLS4TileENS_9allocatorIS2_EEE8max_sizeEv, symObjAddr: 0x2018, symBinAddr: 0x100006C28, symSize: 0x60 }
  - { offsetInCU: 0xA72C, offset: 0x18038, size: 0x8, addend: 0x0, symName: __ZNKSt3__16vectorIN3MLS4TileENS_9allocatorIS2_EEE20__throw_length_errorB7v160006Ev, symObjAddr: 0x2078, symBinAddr: 0x100006C88, symSize: 0x1C }
  - { offsetInCU: 0xA750, offset: 0x1805C, size: 0x8, addend: 0x0, symName: __ZNSt3__16vectorIN3MLS4TileENS_9allocatorIS2_EEE9__end_capB7v160006Ev, symObjAddr: 0x20D4, symBinAddr: 0x100006CE4, symSize: 0x28 }
  - { offsetInCU: 0xA774, offset: 0x18080, size: 0x8, addend: 0x0, symName: __ZNKSt3__16vectorIN3MLS4TileENS_9allocatorIS2_EEE14__annotate_newB7v160006Em, symObjAddr: 0x20FC, symBinAddr: 0x100006D0C, symSize: 0xC8 }
  - { offsetInCU: 0xA7B1, offset: 0x180BD, size: 0x8, addend: 0x0, symName: __ZNSt3__116allocator_traitsINS_9allocatorIN3MLS4TileEEEE8max_sizeB7v160006IS4_vEEmRKS4_, symObjAddr: 0x21F0, symBinAddr: 0x100006E00, symSize: 0x24 }
  - { offsetInCU: 0xA7DE, offset: 0x180EA, size: 0x8, addend: 0x0, symName: __ZNKSt3__16vectorIN3MLS4TileENS_9allocatorIS2_EEE7__allocB7v160006Ev, symObjAddr: 0x2214, symBinAddr: 0x100006E24, symSize: 0x28 }
  - { offsetInCU: 0xA802, offset: 0x1810E, size: 0x8, addend: 0x0, symName: __ZNSt3__114numeric_limitsIlE3maxB7v160006Ev, symObjAddr: 0x223C, symBinAddr: 0x100006E4C, symSize: 0x14 }
  - { offsetInCU: 0xA82A, offset: 0x18136, size: 0x8, addend: 0x0, symName: __ZNKSt3__16__lessImmEclB7v160006ERKmS3_, symObjAddr: 0x22A4, symBinAddr: 0x100006EB4, symSize: 0x34 }
  - { offsetInCU: 0xA86A, offset: 0x18176, size: 0x8, addend: 0x0, symName: __ZNKSt3__19allocatorIN3MLS4TileEE8max_sizeB7v160006Ev, symObjAddr: 0x22D8, symBinAddr: 0x100006EE8, symSize: 0x18 }
  - { offsetInCU: 0xA88E, offset: 0x1819A, size: 0x8, addend: 0x0, symName: __ZNKSt3__117__compressed_pairIPN3MLS4TileENS_9allocatorIS2_EEE6secondB7v160006Ev, symObjAddr: 0x22F0, symBinAddr: 0x100006F00, symSize: 0x24 }
  - { offsetInCU: 0xA8B2, offset: 0x181BE, size: 0x8, addend: 0x0, symName: __ZNKSt3__122__compressed_pair_elemINS_9allocatorIN3MLS4TileEEELi1ELb1EE5__getB7v160006Ev, symObjAddr: 0x2314, symBinAddr: 0x100006F24, symSize: 0x14 }
  - { offsetInCU: 0xA8D6, offset: 0x181E2, size: 0x8, addend: 0x0, symName: __ZNSt3__123__libcpp_numeric_limitsIlLb1EE3maxB7v160006Ev, symObjAddr: 0x2328, symBinAddr: 0x100006F38, symSize: 0x8 }
  - { offsetInCU: 0xA8E9, offset: 0x181F5, size: 0x8, addend: 0x0, symName: __ZNSt12length_errorC1B7v160006EPKc, symObjAddr: 0x2394, symBinAddr: 0x100006FA4, symSize: 0x34 }
  - { offsetInCU: 0xA91F, offset: 0x1822B, size: 0x8, addend: 0x0, symName: __ZNSt12length_errorC2B7v160006EPKc, symObjAddr: 0x23C8, symBinAddr: 0x100006FD8, symSize: 0x4C }
  - { offsetInCU: 0xA956, offset: 0x18262, size: 0x8, addend: 0x0, symName: __ZNSt3__19allocatorIN3MLS4TileEE8allocateB7v160006Em, symObjAddr: 0x2414, symBinAddr: 0x100007024, symSize: 0x5C }
  - { offsetInCU: 0xA988, offset: 0x18294, size: 0x8, addend: 0x0, symName: __ZNSt3__117__compressed_pairIPN3MLS4TileENS_9allocatorIS2_EEE5firstB7v160006Ev, symObjAddr: 0x24F0, symBinAddr: 0x100007100, symSize: 0x24 }
  - { offsetInCU: 0xA9AC, offset: 0x182B8, size: 0x8, addend: 0x0, symName: __ZNSt3__122__compressed_pair_elemIPN3MLS4TileELi0ELb0EE5__getB7v160006Ev, symObjAddr: 0x2514, symBinAddr: 0x100007124, symSize: 0x14 }
  - { offsetInCU: 0xA9E8, offset: 0x182F4, size: 0x8, addend: 0x0, symName: __ZNSt3__16vectorIN3MLS4TileENS_9allocatorIS2_EEE21_ConstructTransactionC1B7v160006ERS5_m, symObjAddr: 0x2528, symBinAddr: 0x100007138, symSize: 0x3C }
  - { offsetInCU: 0xAA2F, offset: 0x1833B, size: 0x8, addend: 0x0, symName: __ZNSt3__116allocator_traitsINS_9allocatorIN3MLS4TileEEEE9constructB7v160006IS3_JRKS3_EvEEvRS4_PT_DpOT0_, symObjAddr: 0x2564, symBinAddr: 0x100007174, symSize: 0x34 }
  - { offsetInCU: 0xAA84, offset: 0x18390, size: 0x8, addend: 0x0, symName: __ZNSt3__16vectorIN3MLS4TileENS_9allocatorIS2_EEE21_ConstructTransactionD1B7v160006Ev, symObjAddr: 0x2598, symBinAddr: 0x1000071A8, symSize: 0x2C }
  - { offsetInCU: 0xAAAD, offset: 0x183B9, size: 0x8, addend: 0x0, symName: __ZNSt3__16vectorIN3MLS4TileENS_9allocatorIS2_EEE21_ConstructTransactionC2B7v160006ERS5_m, symObjAddr: 0x25C4, symBinAddr: 0x1000071D4, symSize: 0x4C }
  - { offsetInCU: 0xAAF3, offset: 0x183FF, size: 0x8, addend: 0x0, symName: __ZNSt3__19allocatorIN3MLS4TileEE9constructB7v160006IS2_JRKS2_EEEvPT_DpOT0_, symObjAddr: 0x2610, symBinAddr: 0x100007220, symSize: 0x30 }
  - { offsetInCU: 0xAB46, offset: 0x18452, size: 0x8, addend: 0x0, symName: __ZN3MLS4TileC1ERKS0_, symObjAddr: 0x2640, symBinAddr: 0x100007250, symSize: 0x34 }
  - { offsetInCU: 0xAB78, offset: 0x18484, size: 0x8, addend: 0x0, symName: __ZN3MLS4TileC2ERKS0_, symObjAddr: 0x2674, symBinAddr: 0x100007284, symSize: 0x54 }
  - { offsetInCU: 0xABAB, offset: 0x184B7, size: 0x8, addend: 0x0, symName: __ZNSt3__16vectorIN3MLS4TileENS_9allocatorIS2_EEE21_ConstructTransactionD2B7v160006Ev, symObjAddr: 0x26C8, symBinAddr: 0x1000072D8, symSize: 0x20 }
  - { offsetInCU: 0xABD2, offset: 0x184DE, size: 0x8, addend: 0x0, symName: __ZNSt3__128__exception_guard_exceptionsINS_6vectorIN3MLS4TileENS_9allocatorIS3_EEE16__destroy_vectorEED2B7v160006Ev, symObjAddr: 0x26E8, symBinAddr: 0x1000072F8, symSize: 0x50 }
  - { offsetInCU: 0xABFA, offset: 0x18506, size: 0x8, addend: 0x0, symName: __ZNSt3__16vectorIN3MLS4TileENS_9allocatorIS2_EEE13__move_assignERS5_NS_17integral_constantIbLb1EEE, symObjAddr: 0x2738, symBinAddr: 0x100007348, symSize: 0xAC }
  - { offsetInCU: 0xAC3A, offset: 0x18546, size: 0x8, addend: 0x0, symName: __ZNSt3__16vectorIN3MLS4TileENS_9allocatorIS2_EEE13__vdeallocateEv, symObjAddr: 0x27E4, symBinAddr: 0x1000073F4, symSize: 0x8C }
  - { offsetInCU: 0xAC61, offset: 0x1856D, size: 0x8, addend: 0x0, symName: __ZNSt3__16vectorIN3MLS4TileENS_9allocatorIS2_EEE19__move_assign_allocB7v160006ERS5_, symObjAddr: 0x2870, symBinAddr: 0x100007480, symSize: 0x2C }
  - { offsetInCU: 0xAC94, offset: 0x185A0, size: 0x8, addend: 0x0, symName: __ZNSt3__16vectorIN3MLS4TileENS_9allocatorIS2_EEE5clearB7v160006Ev, symObjAddr: 0x28B0, symBinAddr: 0x1000074C0, symSize: 0x54 }
  - { offsetInCU: 0xACC7, offset: 0x185D3, size: 0x8, addend: 0x0, symName: __ZNKSt3__16vectorIN3MLS4TileENS_9allocatorIS2_EEE17__annotate_shrinkB7v160006Em, symObjAddr: 0x2904, symBinAddr: 0x100007514, symSize: 0xD0 }
  - { offsetInCU: 0xACFA, offset: 0x18606, size: 0x8, addend: 0x0, symName: __ZNSt3__16vectorIN3MLS4TileENS_9allocatorIS2_EEE19__move_assign_allocB7v160006ERS5_NS_17integral_constantIbLb1EEE, symObjAddr: 0x29E4, symBinAddr: 0x1000075F4, symSize: 0x38 }
  - { offsetInCU: 0xAD37, offset: 0x18643, size: 0x8, addend: 0x0, symName: __ZNSt3__112basic_stringIcNS_11char_traitsIcEENS_9allocatorIcEEE13__move_assignB7v160006ERS5_NS_17integral_constantIbLb1EEE, symObjAddr: 0x2A1C, symBinAddr: 0x10000762C, symSize: 0xC8 }
  - { offsetInCU: 0xAD78, offset: 0x18684, size: 0x8, addend: 0x0, symName: __ZNSt3__116allocator_traitsINS_9allocatorIcEEE10deallocateB7v160006ERS2_Pcm, symObjAddr: 0x2B1C, symBinAddr: 0x1000076F4, symSize: 0x34 }
  - { offsetInCU: 0xADB9, offset: 0x186C5, size: 0x8, addend: 0x0, symName: __ZNSt3__112basic_stringIcNS_11char_traitsIcEENS_9allocatorIcEEE7__allocB7v160006Ev, symObjAddr: 0x2B50, symBinAddr: 0x100007728, symSize: 0x24 }
  - { offsetInCU: 0xADDD, offset: 0x186E9, size: 0x8, addend: 0x0, symName: __ZNSt3__112basic_stringIcNS_11char_traitsIcEENS_9allocatorIcEEE18__get_long_pointerB7v160006Ev, symObjAddr: 0x2B74, symBinAddr: 0x10000774C, symSize: 0x28 }
  - { offsetInCU: 0xAE01, offset: 0x1870D, size: 0x8, addend: 0x0, symName: __ZNKSt3__112basic_stringIcNS_11char_traitsIcEENS_9allocatorIcEEE14__get_long_capB7v160006Ev, symObjAddr: 0x2B9C, symBinAddr: 0x100007774, symSize: 0x30 }
  - { offsetInCU: 0xAE25, offset: 0x18731, size: 0x8, addend: 0x0, symName: __ZNSt3__112basic_stringIcNS_11char_traitsIcEENS_9allocatorIcEEE19__move_assign_allocB7v160006ERS5_, symObjAddr: 0x2BCC, symBinAddr: 0x1000077A4, symSize: 0x2C }
  - { offsetInCU: 0xAE58, offset: 0x18764, size: 0x8, addend: 0x0, symName: __ZNSt3__117__compressed_pairINS_12basic_stringIcNS_11char_traitsIcEENS_9allocatorIcEEE5__repES5_E5firstB7v160006Ev, symObjAddr: 0x2BF8, symBinAddr: 0x1000077D0, symSize: 0x24 }
  - { offsetInCU: 0xAE7C, offset: 0x18788, size: 0x8, addend: 0x0, symName: __ZNSt3__112basic_stringIcNS_11char_traitsIcEENS_9allocatorIcEEE16__set_short_sizeB7v160006Em, symObjAddr: 0x2C1C, symBinAddr: 0x1000077F4, symSize: 0x78 }
  - { offsetInCU: 0xAEAF, offset: 0x187BB, size: 0x8, addend: 0x0, symName: __ZNSt3__111char_traitsIcE6assignERcRKc, symObjAddr: 0x2C94, symBinAddr: 0x10000786C, symSize: 0x24 }
  - { offsetInCU: 0xAEDF, offset: 0x187EB, size: 0x8, addend: 0x0, symName: __ZNSt3__112basic_stringIcNS_11char_traitsIcEENS_9allocatorIcEEE19__get_short_pointerB7v160006Ev, symObjAddr: 0x2CB8, symBinAddr: 0x100007890, symSize: 0x28 }
  - { offsetInCU: 0xAF03, offset: 0x1880F, size: 0x8, addend: 0x0, symName: __ZNSt3__19allocatorIcE10deallocateB7v160006EPcm, symObjAddr: 0x2D18, symBinAddr: 0x1000078B8, symSize: 0x40 }
  - { offsetInCU: 0xAF43, offset: 0x1884F, size: 0x8, addend: 0x0, symName: __ZNSt3__117__compressed_pairINS_12basic_stringIcNS_11char_traitsIcEENS_9allocatorIcEEE5__repES5_E6secondB7v160006Ev, symObjAddr: 0x2D58, symBinAddr: 0x1000078F8, symSize: 0x24 }
  - { offsetInCU: 0xAF67, offset: 0x18873, size: 0x8, addend: 0x0, symName: __ZNSt3__122__compressed_pair_elemINS_9allocatorIcEELi1ELb1EE5__getB7v160006Ev, symObjAddr: 0x2D7C, symBinAddr: 0x10000791C, symSize: 0x14 }
  - { offsetInCU: 0xAF8B, offset: 0x18897, size: 0x8, addend: 0x0, symName: __ZNSt3__112basic_stringIcNS_11char_traitsIcEENS_9allocatorIcEEE19__move_assign_allocB7v160006ERS5_NS_17integral_constantIbLb1EEE, symObjAddr: 0x2D90, symBinAddr: 0x100007930, symSize: 0x38 }
  - { offsetInCU: 0xAFC9, offset: 0x188D5, size: 0x8, addend: 0x0, symName: __ZNSt3__122__compressed_pair_elemINS_12basic_stringIcNS_11char_traitsIcEENS_9allocatorIcEEE5__repELi0ELb0EE5__getB7v160006Ev, symObjAddr: 0x2DC8, symBinAddr: 0x100007968, symSize: 0x14 }
  - { offsetInCU: 0xAFED, offset: 0x188F9, size: 0x8, addend: 0x0, symName: __ZNSt3__114pointer_traitsIPcE10pointer_toB7v160006ERc, symObjAddr: 0x2DDC, symBinAddr: 0x10000797C, symSize: 0x14 }
  - { offsetInCU: 0xB00F, offset: 0x1891B, size: 0x8, addend: 0x0, symName: __ZNSt3__16vectorIN3MLS4TileENS_9allocatorIS2_EEE22__construct_one_at_endB7v160006IJRKS2_EEEvDpOT_, symObjAddr: 0x2DF0, symBinAddr: 0x100007990, symSize: 0x90 }
  - { offsetInCU: 0xB05B, offset: 0x18967, size: 0x8, addend: 0x0, symName: __ZNSt3__16vectorIN3MLS4TileENS_9allocatorIS2_EEE21__push_back_slow_pathIRKS2_EEvOT_, symObjAddr: 0x2E80, symBinAddr: 0x100007A20, symSize: 0xD8 }
  - { offsetInCU: 0xB0B7, offset: 0x189C3, size: 0x8, addend: 0x0, symName: __ZNKSt3__16vectorIN3MLS4TileENS_9allocatorIS2_EEE11__recommendB7v160006Em, symObjAddr: 0x2F58, symBinAddr: 0x100007AF8, symSize: 0xB4 }
  - { offsetInCU: 0xB10A, offset: 0x18A16, size: 0x8, addend: 0x0, symName: __ZNSt3__114__split_bufferIN3MLS4TileERNS_9allocatorIS2_EEEC1EmmS5_, symObjAddr: 0x300C, symBinAddr: 0x100007BAC, symSize: 0x44 }
  - { offsetInCU: 0xB15F, offset: 0x18A6B, size: 0x8, addend: 0x0, symName: __ZNSt3__114__split_bufferIN3MLS4TileERNS_9allocatorIS2_EEED1Ev, symObjAddr: 0x3168, symBinAddr: 0x100007D08, symSize: 0x2C }
  - { offsetInCU: 0xB18A, offset: 0x18A96, size: 0x8, addend: 0x0, symName: __ZNSt3__114__split_bufferIN3MLS4TileERNS_9allocatorIS2_EEEC2EmmS5_, symObjAddr: 0x3214, symBinAddr: 0x100007DB4, symSize: 0xE0 }
  - { offsetInCU: 0xB1FC, offset: 0x18B08, size: 0x8, addend: 0x0, symName: __ZNSt3__117__compressed_pairIPN3MLS4TileERNS_9allocatorIS2_EEEC1B7v160006IDnS6_EEOT_OT0_, symObjAddr: 0x32F4, symBinAddr: 0x100007E94, symSize: 0x3C }
  - { offsetInCU: 0xB253, offset: 0x18B5F, size: 0x8, addend: 0x0, symName: __ZNSt3__114__split_bufferIN3MLS4TileERNS_9allocatorIS2_EEE7__allocB7v160006Ev, symObjAddr: 0x3330, symBinAddr: 0x100007ED0, symSize: 0x28 }
  - { offsetInCU: 0xB277, offset: 0x18B83, size: 0x8, addend: 0x0, symName: __ZNSt3__114__split_bufferIN3MLS4TileERNS_9allocatorIS2_EEE9__end_capB7v160006Ev, symObjAddr: 0x3358, symBinAddr: 0x100007EF8, symSize: 0x28 }
  - { offsetInCU: 0xB29A, offset: 0x18BA6, size: 0x8, addend: 0x0, symName: __ZNSt3__117__compressed_pairIPN3MLS4TileERNS_9allocatorIS2_EEEC2B7v160006IDnS6_EEOT_OT0_, symObjAddr: 0x3380, symBinAddr: 0x100007F20, symSize: 0x48 }
  - { offsetInCU: 0xB2F1, offset: 0x18BFD, size: 0x8, addend: 0x0, symName: __ZNSt3__122__compressed_pair_elemIRNS_9allocatorIN3MLS4TileEEELi1ELb0EEC2B7v160006IS5_vEEOT_, symObjAddr: 0x33C8, symBinAddr: 0x100007F68, symSize: 0x20 }
  - { offsetInCU: 0xB331, offset: 0x18C3D, size: 0x8, addend: 0x0, symName: __ZNSt3__117__compressed_pairIPN3MLS4TileERNS_9allocatorIS2_EEE6secondB7v160006Ev, symObjAddr: 0x33E8, symBinAddr: 0x100007F88, symSize: 0x28 }
  - { offsetInCU: 0xB355, offset: 0x18C61, size: 0x8, addend: 0x0, symName: __ZNSt3__122__compressed_pair_elemIRNS_9allocatorIN3MLS4TileEEELi1ELb0EE5__getB7v160006Ev, symObjAddr: 0x3410, symBinAddr: 0x100007FB0, symSize: 0x18 }
  - { offsetInCU: 0xB379, offset: 0x18C85, size: 0x8, addend: 0x0, symName: __ZNSt3__117__compressed_pairIPN3MLS4TileERNS_9allocatorIS2_EEE5firstB7v160006Ev, symObjAddr: 0x3428, symBinAddr: 0x100007FC8, symSize: 0x24 }
  - { offsetInCU: 0xB39C, offset: 0x18CA8, size: 0x8, addend: 0x0, symName: __ZNSt3__116reverse_iteratorIPN3MLS4TileEEC1B7v160006ES3_, symObjAddr: 0x3578, symBinAddr: 0x100008118, symSize: 0x34 }
  - { offsetInCU: 0xB3D3, offset: 0x18CDF, size: 0x8, addend: 0x0, symName: __ZNKSt3__116reverse_iteratorIPN3MLS4TileEE4baseB7v160006Ev, symObjAddr: 0x35AC, symBinAddr: 0x10000814C, symSize: 0x18 }
  - { offsetInCU: 0xB3F6, offset: 0x18D02, size: 0x8, addend: 0x0, symName: __ZNSt3__129_AllocatorDestroyRangeReverseINS_9allocatorIN3MLS4TileEEENS_16reverse_iteratorIPS3_EEEC1B7v160006ERS4_RS7_SA_, symObjAddr: 0x364C, symBinAddr: 0x1000081EC, symSize: 0x44 }
  - { offsetInCU: 0xB44C, offset: 0x18D58, size: 0x8, addend: 0x0, symName: __ZNSt3__116allocator_traitsINS_9allocatorIN3MLS4TileEEEE9constructB7v160006IS3_JS3_EvEEvRS4_PT_DpOT0_, symObjAddr: 0x36D8, symBinAddr: 0x100008278, symSize: 0x34 }
  - { offsetInCU: 0xB4A2, offset: 0x18DAE, size: 0x8, addend: 0x0, symName: __ZNKSt3__116reverse_iteratorIPN3MLS4TileEEdeB7v160006Ev, symObjAddr: 0x3730, symBinAddr: 0x1000082D0, symSize: 0x28 }
  - { offsetInCU: 0xB4D4, offset: 0x18DE0, size: 0x8, addend: 0x0, symName: __ZNSt3__116reverse_iteratorIPN3MLS4TileEEppB7v160006Ev, symObjAddr: 0x3758, symBinAddr: 0x1000082F8, symSize: 0x20 }
  - { offsetInCU: 0xB4F8, offset: 0x18E04, size: 0x8, addend: 0x0, symName: __ZNSt3__128__exception_guard_exceptionsINS_29_AllocatorDestroyRangeReverseINS_9allocatorIN3MLS4TileEEENS_16reverse_iteratorIPS4_EEEEE10__completeB7v160006Ev, symObjAddr: 0x3778, symBinAddr: 0x100008318, symSize: 0x1C }
  - { offsetInCU: 0xB51B, offset: 0x18E27, size: 0x8, addend: 0x0, symName: __ZNSt3__128__exception_guard_exceptionsINS_29_AllocatorDestroyRangeReverseINS_9allocatorIN3MLS4TileEEENS_16reverse_iteratorIPS4_EEEEED1B7v160006Ev, symObjAddr: 0x3794, symBinAddr: 0x100008334, symSize: 0x2C }
  - { offsetInCU: 0xB543, offset: 0x18E4F, size: 0x8, addend: 0x0, symName: __ZNSt3__128__exception_guard_exceptionsINS_29_AllocatorDestroyRangeReverseINS_9allocatorIN3MLS4TileEEENS_16reverse_iteratorIPS4_EEEEEC1B7v160006ES9_, symObjAddr: 0x37C0, symBinAddr: 0x100008360, symSize: 0x34 }
  - { offsetInCU: 0xB57B, offset: 0x18E87, size: 0x8, addend: 0x0, symName: __ZNSt3__128__exception_guard_exceptionsINS_29_AllocatorDestroyRangeReverseINS_9allocatorIN3MLS4TileEEENS_16reverse_iteratorIPS4_EEEEEC2B7v160006ES9_, symObjAddr: 0x37F4, symBinAddr: 0x100008394, symSize: 0x30 }
  - { offsetInCU: 0xB5B2, offset: 0x18EBE, size: 0x8, addend: 0x0, symName: __ZNSt3__129_AllocatorDestroyRangeReverseINS_9allocatorIN3MLS4TileEEENS_16reverse_iteratorIPS3_EEEC2B7v160006ERS4_RS7_SA_, symObjAddr: 0x3824, symBinAddr: 0x1000083C4, symSize: 0x38 }
  - { offsetInCU: 0xB607, offset: 0x18F13, size: 0x8, addend: 0x0, symName: __ZNSt3__19allocatorIN3MLS4TileEE9constructB7v160006IS2_JS2_EEEvPT_DpOT0_, symObjAddr: 0x385C, symBinAddr: 0x1000083FC, symSize: 0x30 }
  - { offsetInCU: 0xB65A, offset: 0x18F66, size: 0x8, addend: 0x0, symName: __ZN3MLS4TileC1EOS0_, symObjAddr: 0x388C, symBinAddr: 0x10000842C, symSize: 0x34 }
  - { offsetInCU: 0xB68C, offset: 0x18F98, size: 0x8, addend: 0x0, symName: __ZN3MLS4TileC2EOS0_, symObjAddr: 0x38C0, symBinAddr: 0x100008460, symSize: 0x54 }
  - { offsetInCU: 0xB6BE, offset: 0x18FCA, size: 0x8, addend: 0x0, symName: __ZNSt3__112basic_stringIcNS_11char_traitsIcEENS_9allocatorIcEEEC1B7v160006EOS5_, symObjAddr: 0x3914, symBinAddr: 0x1000084B4, symSize: 0x34 }
  - { offsetInCU: 0xB6F5, offset: 0x19001, size: 0x8, addend: 0x0, symName: __ZNSt3__112basic_stringIcNS_11char_traitsIcEENS_9allocatorIcEEEC2B7v160006EOS5_, symObjAddr: 0x3948, symBinAddr: 0x1000084E8, symSize: 0x84 }
  - { offsetInCU: 0xB72D, offset: 0x19039, size: 0x8, addend: 0x0, symName: __ZNSt3__112basic_stringIcNS_11char_traitsIcEENS_9allocatorIcEEE14__default_initB7v160006Ev, symObjAddr: 0x39CC, symBinAddr: 0x10000856C, symSize: 0x40 }
  - { offsetInCU: 0xB756, offset: 0x19062, size: 0x8, addend: 0x0, symName: __ZNSt3__119__to_address_helperINS_16reverse_iteratorIPN3MLS4TileEEEvE6__callB7v160006ERKS5_, symObjAddr: 0x3A20, symBinAddr: 0x1000085C0, symSize: 0x38 }
  - { offsetInCU: 0xB778, offset: 0x19084, size: 0x8, addend: 0x0, symName: __ZNKSt3__116reverse_iteratorIPN3MLS4TileEEptB7v160006Ev, symObjAddr: 0x3A58, symBinAddr: 0x1000085F8, symSize: 0x24 }
  - { offsetInCU: 0xB79B, offset: 0x190A7, size: 0x8, addend: 0x0, symName: __ZNSt3__128__exception_guard_exceptionsINS_29_AllocatorDestroyRangeReverseINS_9allocatorIN3MLS4TileEEENS_16reverse_iteratorIPS4_EEEEED2B7v160006Ev, symObjAddr: 0x3A7C, symBinAddr: 0x10000861C, symSize: 0x50 }
  - { offsetInCU: 0xB7C4, offset: 0x190D0, size: 0x8, addend: 0x0, symName: __ZNKSt3__129_AllocatorDestroyRangeReverseINS_9allocatorIN3MLS4TileEEENS_16reverse_iteratorIPS3_EEEclB7v160006Ev, symObjAddr: 0x3ACC, symBinAddr: 0x10000866C, symSize: 0xB4 }
  - { offsetInCU: 0xB7E8, offset: 0x190F4, size: 0x8, addend: 0x0, symName: __ZNSt3__116reverse_iteratorINS0_IPN3MLS4TileEEEEC1B7v160006ES4_, symObjAddr: 0x3BF0, symBinAddr: 0x100008790, symSize: 0x3C }
  - { offsetInCU: 0xB81F, offset: 0x1912B, size: 0x8, addend: 0x0, symName: __ZNSt3__116reverse_iteratorINS0_IPN3MLS4TileEEEEppB7v160006Ev, symObjAddr: 0x3CB0, symBinAddr: 0x100008850, symSize: 0x30 }
  - { offsetInCU: 0xB843, offset: 0x1914F, size: 0x8, addend: 0x0, symName: __ZNKSt3__116reverse_iteratorINS0_IPN3MLS4TileEEEE4baseB7v160006Ev, symObjAddr: 0x3CE0, symBinAddr: 0x100008880, symSize: 0x24 }
  - { offsetInCU: 0xB86C, offset: 0x19178, size: 0x8, addend: 0x0, symName: __ZNSt3__119__to_address_helperINS_16reverse_iteratorINS1_IPN3MLS4TileEEEEEvE6__callB7v160006ERKS6_, symObjAddr: 0x3D04, symBinAddr: 0x1000088A4, symSize: 0x38 }
  - { offsetInCU: 0xB88E, offset: 0x1919A, size: 0x8, addend: 0x0, symName: __ZNKSt3__116reverse_iteratorINS0_IPN3MLS4TileEEEEptB7v160006Ev, symObjAddr: 0x3D3C, symBinAddr: 0x1000088DC, symSize: 0x24 }
  - { offsetInCU: 0xB8B2, offset: 0x191BE, size: 0x8, addend: 0x0, symName: __ZNKSt3__116reverse_iteratorINS0_IPN3MLS4TileEEEEdeB7v160006Ev, symObjAddr: 0x3D60, symBinAddr: 0x100008900, symSize: 0x34 }
  - { offsetInCU: 0xB8E4, offset: 0x191F0, size: 0x8, addend: 0x0, symName: __ZNSt3__116reverse_iteratorIPN3MLS4TileEEmmB7v160006Ev, symObjAddr: 0x3D94, symBinAddr: 0x100008934, symSize: 0x20 }
  - { offsetInCU: 0xB908, offset: 0x19214, size: 0x8, addend: 0x0, symName: __ZNSt3__116reverse_iteratorINS0_IPN3MLS4TileEEEEC2B7v160006ES4_, symObjAddr: 0x3DB4, symBinAddr: 0x100008954, symSize: 0x2C }
  - { offsetInCU: 0xB93E, offset: 0x1924A, size: 0x8, addend: 0x0, symName: __ZNSt3__116reverse_iteratorIPN3MLS4TileEEC2B7v160006ES3_, symObjAddr: 0x3DE0, symBinAddr: 0x100008980, symSize: 0x28 }
  - { offsetInCU: 0xB973, offset: 0x1927F, size: 0x8, addend: 0x0, symName: __ZNSt3__114__split_bufferIN3MLS4TileERNS_9allocatorIS2_EEED2Ev, symObjAddr: 0x3E08, symBinAddr: 0x1000089A8, symSize: 0x8C }
  - { offsetInCU: 0xB99F, offset: 0x192AB, size: 0x8, addend: 0x0, symName: __ZNSt3__114__split_bufferIN3MLS4TileERNS_9allocatorIS2_EEE5clearB7v160006Ev, symObjAddr: 0x3E94, symBinAddr: 0x100008A34, symSize: 0x28 }
  - { offsetInCU: 0xB9C3, offset: 0x192CF, size: 0x8, addend: 0x0, symName: __ZNKSt3__114__split_bufferIN3MLS4TileERNS_9allocatorIS2_EEE8capacityB7v160006Ev, symObjAddr: 0x3EBC, symBinAddr: 0x100008A5C, symSize: 0x40 }
  - { offsetInCU: 0xB9E7, offset: 0x192F3, size: 0x8, addend: 0x0, symName: __ZNSt3__114__split_bufferIN3MLS4TileERNS_9allocatorIS2_EEE17__destruct_at_endB7v160006EPS2_, symObjAddr: 0x3EFC, symBinAddr: 0x100008A9C, symSize: 0x2C }
  - { offsetInCU: 0xBA18, offset: 0x19324, size: 0x8, addend: 0x0, symName: __ZNSt3__114__split_bufferIN3MLS4TileERNS_9allocatorIS2_EEE17__destruct_at_endB7v160006EPS2_NS_17integral_constantIbLb0EEE, symObjAddr: 0x3F28, symBinAddr: 0x100008AC8, symSize: 0x80 }
  - { offsetInCU: 0xBA57, offset: 0x19363, size: 0x8, addend: 0x0, symName: __ZNKSt3__114__split_bufferIN3MLS4TileERNS_9allocatorIS2_EEE9__end_capB7v160006Ev, symObjAddr: 0x3FA8, symBinAddr: 0x100008B48, symSize: 0x28 }
  - { offsetInCU: 0xBA7B, offset: 0x19387, size: 0x8, addend: 0x0, symName: __ZNKSt3__117__compressed_pairIPN3MLS4TileERNS_9allocatorIS2_EEE5firstB7v160006Ev, symObjAddr: 0x3FD0, symBinAddr: 0x100008B70, symSize: 0x24 }
  - { offsetInCU: 0xBA9E, offset: 0x193AA, size: 0x8, addend: 0x0, symName: __ZNSt3__16vectorIiNS_9allocatorIiEEEC2B7v160006Ev, symObjAddr: 0x3FF4, symBinAddr: 0x100008B94, symSize: 0x58 }
  - { offsetInCU: 0xBAC6, offset: 0x193D2, size: 0x8, addend: 0x0, symName: __ZNSt3__117__compressed_pairIPiNS_9allocatorIiEEEC1B7v160006IDnNS_18__default_init_tagEEEOT_OT0_, symObjAddr: 0x404C, symBinAddr: 0x100008BEC, symSize: 0x3C }
  - { offsetInCU: 0xBB1C, offset: 0x19428, size: 0x8, addend: 0x0, symName: __ZNSt3__117__compressed_pairIPiNS_9allocatorIiEEEC2B7v160006IDnNS_18__default_init_tagEEEOT_OT0_, symObjAddr: 0x4098, symBinAddr: 0x100008C38, symSize: 0x40 }
  - { offsetInCU: 0xBB73, offset: 0x1947F, size: 0x8, addend: 0x0, symName: __ZNSt3__122__compressed_pair_elemIPiLi0ELb0EEC2B7v160006IDnvEEOT_, symObjAddr: 0x40D8, symBinAddr: 0x100008C78, symSize: 0x1C }
  - { offsetInCU: 0xBBB2, offset: 0x194BE, size: 0x8, addend: 0x0, symName: __ZNSt3__122__compressed_pair_elemINS_9allocatorIiEELi1ELb1EEC2B7v160006ENS_18__default_init_tagE, symObjAddr: 0x40F4, symBinAddr: 0x100008C94, symSize: 0x2C }
  - { offsetInCU: 0xBBE4, offset: 0x194F0, size: 0x8, addend: 0x0, symName: __ZNSt3__19allocatorIiEC2B7v160006Ev, symObjAddr: 0x4120, symBinAddr: 0x100008CC0, symSize: 0x2C }
  - { offsetInCU: 0xBC0D, offset: 0x19519, size: 0x8, addend: 0x0, symName: __ZNSt3__116__non_trivial_ifILb1ENS_9allocatorIiEEEC2B7v160006Ev, symObjAddr: 0x414C, symBinAddr: 0x100008CEC, symSize: 0x14 }
  - { offsetInCU: 0xBC34, offset: 0x19540, size: 0x8, addend: 0x0, symName: __ZNSt3__16vectorIiNS_9allocatorIiEEED2B7v160006Ev, symObjAddr: 0x4160, symBinAddr: 0x100008D00, symSize: 0x44 }
  - { offsetInCU: 0xBC5C, offset: 0x19568, size: 0x8, addend: 0x0, symName: __ZNSt3__16vectorIiNS_9allocatorIiEEE16__destroy_vectorC1ERS3_, symObjAddr: 0x41A4, symBinAddr: 0x100008D44, symSize: 0x34 }
  - { offsetInCU: 0xBC94, offset: 0x195A0, size: 0x8, addend: 0x0, symName: __ZNSt3__16vectorIiNS_9allocatorIiEEE16__destroy_vectorclB7v160006Ev, symObjAddr: 0x41D8, symBinAddr: 0x100008D78, symSize: 0x9C }
  - { offsetInCU: 0xBCB8, offset: 0x195C4, size: 0x8, addend: 0x0, symName: __ZNSt3__16vectorIiNS_9allocatorIiEEE16__destroy_vectorC2ERS3_, symObjAddr: 0x4274, symBinAddr: 0x100008E14, symSize: 0x20 }
  - { offsetInCU: 0xBCEF, offset: 0x195FB, size: 0x8, addend: 0x0, symName: __ZNKSt3__16vectorIiNS_9allocatorIiEEE17__annotate_deleteB7v160006Ev, symObjAddr: 0x4294, symBinAddr: 0x100008E34, symSize: 0xB8 }
  - { offsetInCU: 0xBD13, offset: 0x1961F, size: 0x8, addend: 0x0, symName: __ZNSt3__16vectorIiNS_9allocatorIiEEE7__clearB7v160006Ev, symObjAddr: 0x435C, symBinAddr: 0x100008EFC, symSize: 0x28 }
  - { offsetInCU: 0xBD37, offset: 0x19643, size: 0x8, addend: 0x0, symName: __ZNSt3__116allocator_traitsINS_9allocatorIiEEE10deallocateB7v160006ERS2_Pim, symObjAddr: 0x4384, symBinAddr: 0x100008F24, symSize: 0x34 }
  - { offsetInCU: 0xBD78, offset: 0x19684, size: 0x8, addend: 0x0, symName: __ZNSt3__16vectorIiNS_9allocatorIiEEE7__allocB7v160006Ev, symObjAddr: 0x43B8, symBinAddr: 0x100008F58, symSize: 0x28 }
  - { offsetInCU: 0xBD9C, offset: 0x196A8, size: 0x8, addend: 0x0, symName: __ZNKSt3__16vectorIiNS_9allocatorIiEEE8capacityB7v160006Ev, symObjAddr: 0x43E0, symBinAddr: 0x100008F80, symSize: 0x40 }
  - { offsetInCU: 0xBDC0, offset: 0x196CC, size: 0x8, addend: 0x0, symName: __ZNKSt3__16vectorIiNS_9allocatorIiEEE31__annotate_contiguous_containerB7v160006EPKvS5_S5_S5_, symObjAddr: 0x4420, symBinAddr: 0x100008FC0, symSize: 0x20 }
  - { offsetInCU: 0xBE10, offset: 0x1971C, size: 0x8, addend: 0x0, symName: __ZNKSt3__16vectorIiNS_9allocatorIiEEE4dataB7v160006Ev, symObjAddr: 0x4440, symBinAddr: 0x100008FE0, symSize: 0x28 }
  - { offsetInCU: 0xBE34, offset: 0x19740, size: 0x8, addend: 0x0, symName: __ZNKSt3__16vectorIiNS_9allocatorIiEEE4sizeB7v160006Ev, symObjAddr: 0x4468, symBinAddr: 0x100009008, symSize: 0x28 }
  - { offsetInCU: 0xBE58, offset: 0x19764, size: 0x8, addend: 0x0, symName: __ZNSt3__16vectorIiNS_9allocatorIiEEE22__base_destruct_at_endB7v160006EPi, symObjAddr: 0x44A4, symBinAddr: 0x100009044, symSize: 0x8C }
  - { offsetInCU: 0xBE9A, offset: 0x197A6, size: 0x8, addend: 0x0, symName: __ZNSt3__116allocator_traitsINS_9allocatorIiEEE7destroyB7v160006IivEEvRS2_PT_, symObjAddr: 0x4530, symBinAddr: 0x1000090D0, symSize: 0x2C }
  - { offsetInCU: 0xBED6, offset: 0x197E2, size: 0x8, addend: 0x0, symName: __ZNSt3__19allocatorIiE7destroyB7v160006EPi, symObjAddr: 0x455C, symBinAddr: 0x1000090FC, symSize: 0x14 }
  - { offsetInCU: 0xBF08, offset: 0x19814, size: 0x8, addend: 0x0, symName: __ZNSt3__19allocatorIiE10deallocateB7v160006EPim, symObjAddr: 0x4570, symBinAddr: 0x100009110, symSize: 0x40 }
  - { offsetInCU: 0xBF48, offset: 0x19854, size: 0x8, addend: 0x0, symName: __ZNSt3__117__compressed_pairIPiNS_9allocatorIiEEE6secondB7v160006Ev, symObjAddr: 0x45B0, symBinAddr: 0x100009150, symSize: 0x24 }
  - { offsetInCU: 0xBF6C, offset: 0x19878, size: 0x8, addend: 0x0, symName: __ZNSt3__122__compressed_pair_elemINS_9allocatorIiEELi1ELb1EE5__getB7v160006Ev, symObjAddr: 0x45D4, symBinAddr: 0x100009174, symSize: 0x14 }
  - { offsetInCU: 0xBF90, offset: 0x1989C, size: 0x8, addend: 0x0, symName: __ZNKSt3__16vectorIiNS_9allocatorIiEEE9__end_capB7v160006Ev, symObjAddr: 0x45E8, symBinAddr: 0x100009188, symSize: 0x28 }
  - { offsetInCU: 0xBFB4, offset: 0x198C0, size: 0x8, addend: 0x0, symName: __ZNKSt3__117__compressed_pairIPiNS_9allocatorIiEEE5firstB7v160006Ev, symObjAddr: 0x4610, symBinAddr: 0x1000091B0, symSize: 0x24 }
  - { offsetInCU: 0xBFD8, offset: 0x198E4, size: 0x8, addend: 0x0, symName: __ZNKSt3__122__compressed_pair_elemIPiLi0ELb0EE5__getB7v160006Ev, symObjAddr: 0x4634, symBinAddr: 0x1000091D4, symSize: 0x14 }
  - { offsetInCU: 0xBFFC, offset: 0x19908, size: 0x8, addend: 0x0, symName: __ZNSt3__16vectorIiNS_9allocatorIiEEE9__end_capB7v160006Ev, symObjAddr: 0x4648, symBinAddr: 0x1000091E8, symSize: 0x28 }
  - { offsetInCU: 0xC020, offset: 0x1992C, size: 0x8, addend: 0x0, symName: __ZNSt3__16vectorIiNS_9allocatorIiEEE22__construct_one_at_endB7v160006IJRKiEEEvDpOT_, symObjAddr: 0x4670, symBinAddr: 0x100009210, symSize: 0x90 }
  - { offsetInCU: 0xC06C, offset: 0x19978, size: 0x8, addend: 0x0, symName: __ZNSt3__16vectorIiNS_9allocatorIiEEE21__push_back_slow_pathIRKiEEvOT_, symObjAddr: 0x4700, symBinAddr: 0x1000092A0, symSize: 0xD8 }
  - { offsetInCU: 0xC0C9, offset: 0x199D5, size: 0x8, addend: 0x0, symName: __ZNSt3__117__compressed_pairIPiNS_9allocatorIiEEE5firstB7v160006Ev, symObjAddr: 0x47D8, symBinAddr: 0x100009378, symSize: 0x24 }
  - { offsetInCU: 0xC0ED, offset: 0x199F9, size: 0x8, addend: 0x0, symName: __ZNSt3__122__compressed_pair_elemIPiLi0ELb0EE5__getB7v160006Ev, symObjAddr: 0x47FC, symBinAddr: 0x10000939C, symSize: 0x14 }
  - { offsetInCU: 0xC129, offset: 0x19A35, size: 0x8, addend: 0x0, symName: __ZNSt3__16vectorIiNS_9allocatorIiEEE21_ConstructTransactionC1B7v160006ERS3_m, symObjAddr: 0x4810, symBinAddr: 0x1000093B0, symSize: 0x3C }
  - { offsetInCU: 0xC170, offset: 0x19A7C, size: 0x8, addend: 0x0, symName: __ZNSt3__116allocator_traitsINS_9allocatorIiEEE9constructB7v160006IiJRKiEvEEvRS2_PT_DpOT0_, symObjAddr: 0x484C, symBinAddr: 0x1000093EC, symSize: 0x34 }
  - { offsetInCU: 0xC1C5, offset: 0x19AD1, size: 0x8, addend: 0x0, symName: __ZNSt3__16vectorIiNS_9allocatorIiEEE21_ConstructTransactionD1B7v160006Ev, symObjAddr: 0x4880, symBinAddr: 0x100009420, symSize: 0x2C }
  - { offsetInCU: 0xC1EE, offset: 0x19AFA, size: 0x8, addend: 0x0, symName: __ZNSt3__16vectorIiNS_9allocatorIiEEE21_ConstructTransactionC2B7v160006ERS3_m, symObjAddr: 0x48AC, symBinAddr: 0x10000944C, symSize: 0x44 }
  - { offsetInCU: 0xC234, offset: 0x19B40, size: 0x8, addend: 0x0, symName: __ZNSt3__19allocatorIiE9constructB7v160006IiJRKiEEEvPT_DpOT0_, symObjAddr: 0x48F0, symBinAddr: 0x100009490, symSize: 0x28 }
  - { offsetInCU: 0xC288, offset: 0x19B94, size: 0x8, addend: 0x0, symName: __ZNSt3__16vectorIiNS_9allocatorIiEEE21_ConstructTransactionD2B7v160006Ev, symObjAddr: 0x4918, symBinAddr: 0x1000094B8, symSize: 0x20 }
  - { offsetInCU: 0xC2AF, offset: 0x19BBB, size: 0x8, addend: 0x0, symName: __ZNKSt3__16vectorIiNS_9allocatorIiEEE11__recommendB7v160006Em, symObjAddr: 0x4938, symBinAddr: 0x1000094D8, symSize: 0xB4 }
  - { offsetInCU: 0xC302, offset: 0x19C0E, size: 0x8, addend: 0x0, symName: __ZNSt3__114__split_bufferIiRNS_9allocatorIiEEEC1EmmS3_, symObjAddr: 0x49EC, symBinAddr: 0x10000958C, symSize: 0x44 }
  - { offsetInCU: 0xC357, offset: 0x19C63, size: 0x8, addend: 0x0, symName: __ZNSt3__114__split_bufferIiRNS_9allocatorIiEEED1Ev, symObjAddr: 0x4B48, symBinAddr: 0x1000096E8, symSize: 0x2C }
  - { offsetInCU: 0xC382, offset: 0x19C8E, size: 0x8, addend: 0x0, symName: __ZNKSt3__16vectorIiNS_9allocatorIiEEE8max_sizeEv, symObjAddr: 0x4B74, symBinAddr: 0x100009714, symSize: 0x60 }
  - { offsetInCU: 0xC3A9, offset: 0x19CB5, size: 0x8, addend: 0x0, symName: __ZNKSt3__16vectorIiNS_9allocatorIiEEE20__throw_length_errorB7v160006Ev, symObjAddr: 0x4BD4, symBinAddr: 0x100009774, symSize: 0x1C }
  - { offsetInCU: 0xC3D7, offset: 0x19CE3, size: 0x8, addend: 0x0, symName: __ZNSt3__116allocator_traitsINS_9allocatorIiEEE8max_sizeB7v160006IS2_vEEmRKS2_, symObjAddr: 0x4BF0, symBinAddr: 0x100009790, symSize: 0x24 }
  - { offsetInCU: 0xC404, offset: 0x19D10, size: 0x8, addend: 0x0, symName: __ZNKSt3__16vectorIiNS_9allocatorIiEEE7__allocB7v160006Ev, symObjAddr: 0x4C14, symBinAddr: 0x1000097B4, symSize: 0x28 }
  - { offsetInCU: 0xC428, offset: 0x19D34, size: 0x8, addend: 0x0, symName: __ZNKSt3__19allocatorIiE8max_sizeB7v160006Ev, symObjAddr: 0x4C3C, symBinAddr: 0x1000097DC, symSize: 0x14 }
  - { offsetInCU: 0xC44C, offset: 0x19D58, size: 0x8, addend: 0x0, symName: __ZNKSt3__117__compressed_pairIPiNS_9allocatorIiEEE6secondB7v160006Ev, symObjAddr: 0x4C50, symBinAddr: 0x1000097F0, symSize: 0x24 }
  - { offsetInCU: 0xC470, offset: 0x19D7C, size: 0x8, addend: 0x0, symName: __ZNKSt3__122__compressed_pair_elemINS_9allocatorIiEELi1ELb1EE5__getB7v160006Ev, symObjAddr: 0x4C74, symBinAddr: 0x100009814, symSize: 0x14 }
  - { offsetInCU: 0xC493, offset: 0x19D9F, size: 0x8, addend: 0x0, symName: __ZNSt3__114__split_bufferIiRNS_9allocatorIiEEEC2EmmS3_, symObjAddr: 0x4C88, symBinAddr: 0x100009828, symSize: 0xD4 }
  - { offsetInCU: 0xC505, offset: 0x19E11, size: 0x8, addend: 0x0, symName: __ZNSt3__117__compressed_pairIPiRNS_9allocatorIiEEEC1B7v160006IDnS4_EEOT_OT0_, symObjAddr: 0x4D5C, symBinAddr: 0x1000098FC, symSize: 0x3C }
  - { offsetInCU: 0xC55C, offset: 0x19E68, size: 0x8, addend: 0x0, symName: __ZNSt3__114__split_bufferIiRNS_9allocatorIiEEE7__allocB7v160006Ev, symObjAddr: 0x4DD8, symBinAddr: 0x100009978, symSize: 0x28 }
  - { offsetInCU: 0xC580, offset: 0x19E8C, size: 0x8, addend: 0x0, symName: __ZNSt3__114__split_bufferIiRNS_9allocatorIiEEE9__end_capB7v160006Ev, symObjAddr: 0x4E00, symBinAddr: 0x1000099A0, symSize: 0x28 }
  - { offsetInCU: 0xC5A3, offset: 0x19EAF, size: 0x8, addend: 0x0, symName: __ZNSt3__117__compressed_pairIPiRNS_9allocatorIiEEEC2B7v160006IDnS4_EEOT_OT0_, symObjAddr: 0x4E28, symBinAddr: 0x1000099C8, symSize: 0x48 }
  - { offsetInCU: 0xC5FA, offset: 0x19F06, size: 0x8, addend: 0x0, symName: __ZNSt3__122__compressed_pair_elemIRNS_9allocatorIiEELi1ELb0EEC2B7v160006IS3_vEEOT_, symObjAddr: 0x4E70, symBinAddr: 0x100009A10, symSize: 0x20 }
  - { offsetInCU: 0xC63A, offset: 0x19F46, size: 0x8, addend: 0x0, symName: __ZNSt3__19allocatorIiE8allocateB7v160006Em, symObjAddr: 0x4E90, symBinAddr: 0x100009A30, symSize: 0x58 }
  - { offsetInCU: 0xC66C, offset: 0x19F78, size: 0x8, addend: 0x0, symName: __ZNSt3__117__compressed_pairIPiRNS_9allocatorIiEEE6secondB7v160006Ev, symObjAddr: 0x4EE8, symBinAddr: 0x100009A88, symSize: 0x28 }
  - { offsetInCU: 0xC690, offset: 0x19F9C, size: 0x8, addend: 0x0, symName: __ZNSt3__122__compressed_pair_elemIRNS_9allocatorIiEELi1ELb0EE5__getB7v160006Ev, symObjAddr: 0x4F10, symBinAddr: 0x100009AB0, symSize: 0x18 }
  - { offsetInCU: 0xC6B4, offset: 0x19FC0, size: 0x8, addend: 0x0, symName: __ZNSt3__117__compressed_pairIPiRNS_9allocatorIiEEE5firstB7v160006Ev, symObjAddr: 0x4F28, symBinAddr: 0x100009AC8, symSize: 0x24 }
  - { offsetInCU: 0xC6D7, offset: 0x19FE3, size: 0x8, addend: 0x0, symName: __ZNSt3__116reverse_iteratorIPiEC1B7v160006ES1_, symObjAddr: 0x4FC4, symBinAddr: 0x100009B64, symSize: 0x34 }
  - { offsetInCU: 0xC70E, offset: 0x1A01A, size: 0x8, addend: 0x0, symName: __ZNKSt3__116reverse_iteratorIPiE4baseB7v160006Ev, symObjAddr: 0x4FF8, symBinAddr: 0x100009B98, symSize: 0x18 }
  - { offsetInCU: 0xC732, offset: 0x1A03E, size: 0x8, addend: 0x0, symName: __ZNKSt3__16vectorIiNS_9allocatorIiEEE14__annotate_newB7v160006Em, symObjAddr: 0x504C, symBinAddr: 0x100009BEC, symSize: 0xAC }
  - { offsetInCU: 0xC788, offset: 0x1A094, size: 0x8, addend: 0x0, symName: __ZNKSt3__111__move_loopINS_17_ClassicAlgPolicyEEclB7v160006INS_16reverse_iteratorIPiEES6_S6_EENS_4pairIT_T1_EES8_T0_S9_, symObjAddr: 0x53F8, symBinAddr: 0x100009F98, symSize: 0xA0 }
  - { offsetInCU: 0xC7F6, offset: 0x1A102, size: 0x8, addend: 0x0, symName: __ZNSt3__18_IterOpsINS_17_ClassicAlgPolicyEE11__iter_moveB7v160006IRNS_16reverse_iteratorIPiEEEENS_9enable_ifIXsr12is_referenceIDTdeclsr3stdE7declvalIRT_EEEEE5valueEDTclsr3stdE4movedeclsr3stdE7declvalISA_EEEEE4typeEOS9_, symObjAddr: 0x562C, symBinAddr: 0x10000A1CC, symSize: 0x28 }
  - { offsetInCU: 0xC821, offset: 0x1A12D, size: 0x8, addend: 0x0, symName: __ZNKSt3__116reverse_iteratorIPiEdeB7v160006Ev, symObjAddr: 0x5654, symBinAddr: 0x10000A1F4, symSize: 0x28 }
  - { offsetInCU: 0xC853, offset: 0x1A15F, size: 0x8, addend: 0x0, symName: __ZNSt3__116reverse_iteratorIPiEppB7v160006Ev, symObjAddr: 0x567C, symBinAddr: 0x10000A21C, symSize: 0x20 }
  - { offsetInCU: 0xC877, offset: 0x1A183, size: 0x8, addend: 0x0, symName: __ZNSt3__18_IterOpsINS_17_ClassicAlgPolicyEE25__validate_iter_referenceB7v160006IRNS_16reverse_iteratorIPiEEEEvv, symObjAddr: 0x569C, symBinAddr: 0x10000A23C, symSize: 0x4 }
  - { offsetInCU: 0xC894, offset: 0x1A1A0, size: 0x8, addend: 0x0, symName: __ZNSt3__118__unwrap_iter_implINS_16reverse_iteratorIPiEELb0EE8__unwrapB7v160006ES3_, symObjAddr: 0x56A0, symBinAddr: 0x10000A240, symSize: 0x24 }
  - { offsetInCU: 0xC8BA, offset: 0x1A1C6, size: 0x8, addend: 0x0, symName: __ZNSt3__14pairINS_16reverse_iteratorIPiEES3_EC1B7v160006IS3_S3_LPv0EEEOT_OT0_, symObjAddr: 0x56C4, symBinAddr: 0x10000A264, symSize: 0x3C }
  - { offsetInCU: 0xC917, offset: 0x1A223, size: 0x8, addend: 0x0, symName: __ZNSt3__14pairINS_16reverse_iteratorIPiEES3_EC2B7v160006IS3_S3_LPv0EEEOT_OT0_, symObjAddr: 0x5700, symBinAddr: 0x10000A2A0, symSize: 0x34 }
  - { offsetInCU: 0xC973, offset: 0x1A27F, size: 0x8, addend: 0x0, symName: __ZNSt3__118__unwrap_iter_implINS_16reverse_iteratorIPiEELb0EE8__rewrapB7v160006ES3_S3_, symObjAddr: 0x5734, symBinAddr: 0x10000A2D4, symSize: 0x2C }
  - { offsetInCU: 0xC99F, offset: 0x1A2AB, size: 0x8, addend: 0x0, symName: __ZNSt3__116reverse_iteratorIPiEC2B7v160006ES1_, symObjAddr: 0x5760, symBinAddr: 0x10000A300, symSize: 0x28 }
  - { offsetInCU: 0xC9D4, offset: 0x1A2E0, size: 0x8, addend: 0x0, symName: __ZNSt3__114__split_bufferIiRNS_9allocatorIiEEED2Ev, symObjAddr: 0x5788, symBinAddr: 0x10000A328, symSize: 0x8C }
  - { offsetInCU: 0xCA00, offset: 0x1A30C, size: 0x8, addend: 0x0, symName: __ZNSt3__114__split_bufferIiRNS_9allocatorIiEEE5clearB7v160006Ev, symObjAddr: 0x5814, symBinAddr: 0x10000A3B4, symSize: 0x28 }
  - { offsetInCU: 0xCA24, offset: 0x1A330, size: 0x8, addend: 0x0, symName: __ZNKSt3__114__split_bufferIiRNS_9allocatorIiEEE8capacityB7v160006Ev, symObjAddr: 0x583C, symBinAddr: 0x10000A3DC, symSize: 0x40 }
  - { offsetInCU: 0xCA48, offset: 0x1A354, size: 0x8, addend: 0x0, symName: __ZNSt3__114__split_bufferIiRNS_9allocatorIiEEE17__destruct_at_endB7v160006EPi, symObjAddr: 0x587C, symBinAddr: 0x10000A41C, symSize: 0x2C }
  - { offsetInCU: 0xCA79, offset: 0x1A385, size: 0x8, addend: 0x0, symName: __ZNSt3__114__split_bufferIiRNS_9allocatorIiEEE17__destruct_at_endB7v160006EPiNS_17integral_constantIbLb0EEE, symObjAddr: 0x58A8, symBinAddr: 0x10000A448, symSize: 0x80 }
  - { offsetInCU: 0xCAB8, offset: 0x1A3C4, size: 0x8, addend: 0x0, symName: __ZNKSt3__114__split_bufferIiRNS_9allocatorIiEEE9__end_capB7v160006Ev, symObjAddr: 0x5928, symBinAddr: 0x10000A4C8, symSize: 0x28 }
  - { offsetInCU: 0xCADC, offset: 0x1A3E8, size: 0x8, addend: 0x0, symName: __ZNKSt3__117__compressed_pairIPiRNS_9allocatorIiEEE5firstB7v160006Ev, symObjAddr: 0x5950, symBinAddr: 0x10000A4F0, symSize: 0x24 }
  - { offsetInCU: 0xCB00, offset: 0x1A40C, size: 0x8, addend: 0x0, symName: __ZNKSt3__16vectorIN3MLS4TileENS_9allocatorIS2_EEE11__make_iterB7v160006EPKS2_, symObjAddr: 0x5974, symBinAddr: 0x10000A514, symSize: 0x34 }
  - { offsetInCU: 0xCB32, offset: 0x1A43E, size: 0x8, addend: 0x0, symName: __ZNSt3__111__wrap_iterIPKN3MLS4TileEEC1B7v160006EPKvS4_, symObjAddr: 0x59A8, symBinAddr: 0x10000A548, symSize: 0x3C }
  - { offsetInCU: 0xCB77, offset: 0x1A483, size: 0x8, addend: 0x0, symName: __ZNSt3__111__wrap_iterIPKN3MLS4TileEEC2B7v160006EPKvS4_, symObjAddr: 0x59E4, symBinAddr: 0x10000A584, symSize: 0x24 }
  - { offsetInCU: 0xCBC4, offset: 0x1A4D0, size: 0x8, addend: 0x0, symName: '__ZZNK3MLS5Board4fullEvENK3$_0clERKNS_4TileE', symObjAddr: 0x5A3C, symBinAddr: 0x10000A5DC, symSize: 0x38 }
  - { offsetInCU: 0xCBFB, offset: 0x1A507, size: 0x8, addend: 0x0, symName: __ZNKSt3__111__wrap_iterIPKN3MLS4TileEEdeB7v160006Ev, symObjAddr: 0x5A74, symBinAddr: 0x10000A614, symSize: 0x18 }
  - { offsetInCU: 0xCC1F, offset: 0x1A52B, size: 0x8, addend: 0x0, symName: __ZNSt3__111__wrap_iterIPKN3MLS4TileEEppB7v160006Ev, symObjAddr: 0x5A8C, symBinAddr: 0x10000A62C, symSize: 0x20 }
  - { offsetInCU: 0xCC43, offset: 0x1A54F, size: 0x8, addend: 0x0, symName: __ZNKSt3__111__wrap_iterIPKN3MLS4TileEE4baseB7v160006Ev, symObjAddr: 0x5AF4, symBinAddr: 0x10000A694, symSize: 0x18 }
  - { offsetInCU: 0xCC66, offset: 0x1A572, size: 0x8, addend: 0x0, symName: __ZNSt3__112basic_stringIcNS_11char_traitsIcEENS_9allocatorIcEEEC2B7v160006Ev, symObjAddr: 0x5BB8, symBinAddr: 0x10000A6AC, symSize: 0x4C }
  - { offsetInCU: 0xCC8E, offset: 0x1A59A, size: 0x8, addend: 0x0, symName: __ZNSt3__112basic_stringIcNS_11char_traitsIcEENS_9allocatorIcEEEC2B7v160006Emc, symObjAddr: 0x5C60, symBinAddr: 0x10000A6F8, symSize: 0x54 }
  - { offsetInCU: 0xCCD5, offset: 0x1A5E1, size: 0x8, addend: 0x0, symName: __ZNSt3__112basic_stringIcNS_11char_traitsIcEENS_9allocatorIcEEE6appendB7v160006ERKS5_, symObjAddr: 0x5CB4, symBinAddr: 0x10000A74C, symSize: 0x4C }
  - { offsetInCU: 0x26, offset: 0x1A733, size: 0x8, addend: 0x0, symName: __ZN3MLS3GUI6ButtonC2ENSt3__112basic_stringIcNS2_11char_traitsIcEENS2_9allocatorIcEEEEPNS0_15IActionListenerES8_, symObjAddr: 0x0, symBinAddr: 0x10000A798, symSize: 0xE8 }
  - { offsetInCU: 0x4847, offset: 0x1EF54, size: 0x8, addend: 0x0, symName: __ZN3MLS3GUI6ButtonC2ENSt3__112basic_stringIcNS2_11char_traitsIcEENS2_9allocatorIcEEEEPNS0_15IActionListenerES8_, symObjAddr: 0x0, symBinAddr: 0x10000A798, symSize: 0xE8 }
  - { offsetInCU: 0x489D, offset: 0x1EFAA, size: 0x8, addend: 0x0, symName: __ZN3MLS3GUI15IActionListenerC2Ev, symObjAddr: 0xE8, symBinAddr: 0x10000A880, symSize: 0x24 }
  - { offsetInCU: 0x48C8, offset: 0x1EFD5, size: 0x8, addend: 0x0, symName: __ZN3MLS3GUI6ButtonC1ENSt3__112basic_stringIcNS2_11char_traitsIcEENS2_9allocatorIcEEEEPNS0_15IActionListenerES8_, symObjAddr: 0x10C, symBinAddr: 0x10000A8A4, symSize: 0x44 }
  - { offsetInCU: 0x491E, offset: 0x1F02B, size: 0x8, addend: 0x0, symName: __ZN3MLS3GUI6Button16action_performedEPS1_, symObjAddr: 0x150, symBinAddr: 0x10000A8E8, symSize: 0x58 }
  - { offsetInCU: 0x26, offset: 0x1F085, size: 0x8, addend: 0x0, symName: __ZN3MLS3GUI9ComponentC2Ev, symObjAddr: 0x0, symBinAddr: 0x10000A940, symSize: 0x2C }
  - { offsetInCU: 0xC8, offset: 0x1F127, size: 0x8, addend: 0x0, symName: __ZN3MLS3GUI9ComponentC2Ev, symObjAddr: 0x0, symBinAddr: 0x10000A940, symSize: 0x2C }
  - { offsetInCU: 0xF3, offset: 0x1F152, size: 0x8, addend: 0x0, symName: __ZN3MLS3GUI9ComponentC1Ev, symObjAddr: 0x2C, symBinAddr: 0x10000A96C, symSize: 0x2C }
  - { offsetInCU: 0x39, offset: 0x1F1BA, size: 0x8, addend: 0x0, symName: __ZN3MLS3GUI5Panel9displayedE, symObjAddr: 0x26288, symBinAddr: 0x100018058, symSize: 0x0 }
  - { offsetInCU: 0x4601, offset: 0x23782, size: 0x8, addend: 0x0, symName: __ZNSt3__1neB7v160006IPKPN3MLS3GUI9ComponentEEEbRKNS_11__wrap_iterIT_EESB_, symObjAddr: 0xBB4, symBinAddr: 0x10000B4D4, symSize: 0x34 }
  - { offsetInCU: 0x4644, offset: 0x237C5, size: 0x8, addend: 0x0, symName: '__ZNSt3__18count_ifB7v160006INS_11__wrap_iterIPPN3MLS3GUI9ComponentEEEZNS3_5Panel9scroll_upEvE3$_0EENS_15iterator_traitsIT_E15difference_typeESB_SB_T0_', symObjAddr: 0xC20, symBinAddr: 0x10000B540, symSize: 0x7C }
  - { offsetInCU: 0x46AC, offset: 0x2382D, size: 0x8, addend: 0x0, symName: '__ZNSt3__18count_ifB7v160006INS_11__wrap_iterIPPN3MLS3GUI9ComponentEEEZNS3_5Panel11scroll_downEvE3$_1EENS_15iterator_traitsIT_E15difference_typeESB_SB_T0_', symObjAddr: 0xCCC, symBinAddr: 0x10000B5EC, symSize: 0x7C }
  - { offsetInCU: 0x4714, offset: 0x23895, size: 0x8, addend: 0x0, symName: __ZNSt3__1eqB7v160006IPKPN3MLS3GUI9ComponentEEEbRKNS_11__wrap_iterIT_EESB_, symObjAddr: 0xD48, symBinAddr: 0x10000B668, symSize: 0x48 }
  - { offsetInCU: 0x4757, offset: 0x238D8, size: 0x8, addend: 0x0, symName: __ZNSt3__119__debug_db_insert_cB7v160006INS_6vectorIPN3MLS3GUI9ComponentENS_9allocatorIS5_EEEEEEvPT_, symObjAddr: 0xE48, symBinAddr: 0x10000B75C, symSize: 0x10 }
  - { offsetInCU: 0x4788, offset: 0x23909, size: 0x8, addend: 0x0, symName: __ZNSt3__118__debug_db_erase_cB7v160006INS_6vectorIPN3MLS3GUI9ComponentENS_9allocatorIS5_EEEEEEvPT_, symObjAddr: 0x110C, symBinAddr: 0x10000BA20, symSize: 0x10 }
  - { offsetInCU: 0x47B9, offset: 0x2393A, size: 0x8, addend: 0x0, symName: __ZNSt3__112__to_addressB7v160006IPN3MLS3GUI9ComponentEEEPT_S6_, symObjAddr: 0x1228, symBinAddr: 0x10000BB3C, symSize: 0x14 }
  - { offsetInCU: 0x47EE, offset: 0x2396F, size: 0x8, addend: 0x0, symName: __ZNSt3__119__allocate_at_leastB7v160006INS_9allocatorIPN3MLS3GUI9ComponentEEEEENS_19__allocation_resultINS_16allocator_traitsIT_E7pointerEEERS9_m, symObjAddr: 0x1DE0, symBinAddr: 0x10000C444, symSize: 0x40 }
  - { offsetInCU: 0x4831, offset: 0x239B2, size: 0x8, addend: 0x0, symName: __ZNSt3__142__uninitialized_allocator_move_if_noexceptB7v160006INS_9allocatorIPN3MLS3GUI9ComponentEEENS_16reverse_iteratorIPS5_EES9_S5_vEET1_RT_T0_SD_SA_, symObjAddr: 0x2014, symBinAddr: 0x10000C5F8, symSize: 0x78 }
  - { offsetInCU: 0x48AE, offset: 0x23A2F, size: 0x8, addend: 0x0, symName: __ZNSt3__14swapB7v160006IPPN3MLS3GUI9ComponentEEENS_9enable_ifIXaasr21is_move_constructibleIT_EE5valuesr18is_move_assignableIS7_EE5valueEvE4typeERS7_SA_, symObjAddr: 0x20D8, symBinAddr: 0x10000C6BC, symSize: 0x3C }
  - { offsetInCU: 0x48FF, offset: 0x23A80, size: 0x8, addend: 0x0, symName: __ZNSt3__125__debug_db_invalidate_allB7v160006INS_6vectorIPN3MLS3GUI9ComponentENS_9allocatorIS5_EEEEEEvPT_, symObjAddr: 0x21C0, symBinAddr: 0x10000C7A4, symSize: 0x10 }
  - { offsetInCU: 0x4930, offset: 0x23AB1, size: 0x8, addend: 0x0, symName: __ZNSt3__14moveB7v160006INS_16reverse_iteratorIPPN3MLS3GUI9ComponentEEES7_EET0_T_S9_S8_, symObjAddr: 0x21D0, symBinAddr: 0x10000C7B4, symSize: 0x78 }
  - { offsetInCU: 0x498A, offset: 0x23B0B, size: 0x8, addend: 0x0, symName: __ZNSt3__16__moveB7v160006INS_17_ClassicAlgPolicyENS_16reverse_iteratorIPPN3MLS3GUI9ComponentEEES8_S8_EENS_4pairIT0_T2_EESA_T1_SB_, symObjAddr: 0x2248, symBinAddr: 0x10000C82C, symSize: 0x64 }
  - { offsetInCU: 0x49F6, offset: 0x23B77, size: 0x8, addend: 0x0, symName: __ZNSt3__123__dispatch_copy_or_moveB7v160006INS_17_ClassicAlgPolicyENS_11__move_loopIS1_EENS_14__move_trivialENS_16reverse_iteratorIPPN3MLS3GUI9ComponentEEESB_SB_EENS_4pairIT2_T4_EESD_T3_SE_, symObjAddr: 0x22AC, symBinAddr: 0x10000C890, symSize: 0x64 }
  - { offsetInCU: 0x4A74, offset: 0x23BF5, size: 0x8, addend: 0x0, symName: __ZNSt3__121__unwrap_and_dispatchB7v160006INS_10__overloadINS_11__move_loopINS_17_ClassicAlgPolicyEEENS_14__move_trivialEEENS_16reverse_iteratorIPPN3MLS3GUI9ComponentEEESD_SD_Li0EEENS_4pairIT0_T2_EESF_T1_SG_, symObjAddr: 0x2310, symBinAddr: 0x10000C8F4, symSize: 0x12C }
  - { offsetInCU: 0x4B05, offset: 0x23C86, size: 0x8, addend: 0x0, symName: __ZNSt3__114__unwrap_rangeB7v160006INS_16reverse_iteratorIPPN3MLS3GUI9ComponentEEES7_EENS_4pairIT0_S9_EET_SB_, symObjAddr: 0x243C, symBinAddr: 0x10000CA20, symSize: 0x84 }
  - { offsetInCU: 0x4C77, offset: 0x23DF8, size: 0x8, addend: 0x0, symName: __ZNSt3__113__unwrap_iterB7v160006INS_16reverse_iteratorIPPN3MLS3GUI9ComponentEEENS_18__unwrap_iter_implIS7_Lb0EEELi0EEEDTclsrT0_8__unwrapclsr3stdE7declvalIT_EEEESB_, symObjAddr: 0x2560, symBinAddr: 0x10000CB44, symSize: 0x44 }
  - { offsetInCU: 0x4CBC, offset: 0x23E3D, size: 0x8, addend: 0x0, symName: __ZNSt3__19make_pairB7v160006INS_16reverse_iteratorIPPN3MLS3GUI9ComponentEEES7_EENS_4pairINS_18__unwrap_ref_decayIT_E4typeENS9_IT0_E4typeEEEOSA_OSD_, symObjAddr: 0x25A4, symBinAddr: 0x10000CB88, symSize: 0x38 }
  - { offsetInCU: 0x4D0B, offset: 0x23E8C, size: 0x8, addend: 0x0, symName: __ZNSt3__114__rewrap_rangeB7v160006INS_16reverse_iteratorIPPN3MLS3GUI9ComponentEEES7_EET_S8_T0_, symObjAddr: 0x25DC, symBinAddr: 0x10000CBC0, symSize: 0x5C }
  - { offsetInCU: 0x4D57, offset: 0x23ED8, size: 0x8, addend: 0x0, symName: __ZNSt3__113__rewrap_iterB7v160006INS_16reverse_iteratorIPPN3MLS3GUI9ComponentEEES7_NS_18__unwrap_iter_implIS7_Lb0EEEEET_SA_T0_, symObjAddr: 0x2638, symBinAddr: 0x10000CC1C, symSize: 0x74 }
  - { offsetInCU: 0x4DAC, offset: 0x23F2D, size: 0x8, addend: 0x0, symName: __ZNSt3__1neB7v160006IPPN3MLS3GUI9ComponentES5_EEbRKNS_16reverse_iteratorIT_EERKNS6_IT0_EE, symObjAddr: 0x26AC, symBinAddr: 0x10000CC90, symSize: 0x48 }
  - { offsetInCU: 0x4EAA, offset: 0x2402B, size: 0x8, addend: 0x0, symName: __ZNSt3__1miB7v160006IPKPN3MLS3GUI9ComponentES6_EEDTmicldtfp_4baseEcldtfp0_4baseEERKNS_11__wrap_iterIT_EERKNS8_IT0_EE, symObjAddr: 0x2AF8, symBinAddr: 0x10000D0DC, symSize: 0x48 }
  - { offsetInCU: 0x4EF6, offset: 0x24077, size: 0x8, addend: 0x0, symName: __ZNSt3__14moveB7v160006IPPN3MLS3GUI9ComponentES5_EET0_T_S7_S6_, symObjAddr: 0x2BCC, symBinAddr: 0x10000D1B0, symSize: 0x40 }
  - { offsetInCU: 0x4F50, offset: 0x240D1, size: 0x8, addend: 0x0, symName: __ZNSt3__16__moveB7v160006INS_17_ClassicAlgPolicyEPPN3MLS3GUI9ComponentES6_S6_EENS_4pairIT0_T2_EES8_T1_S9_, symObjAddr: 0x2CD4, symBinAddr: 0x10000D2B8, symSize: 0x44 }
  - { offsetInCU: 0x4FBC, offset: 0x2413D, size: 0x8, addend: 0x0, symName: __ZNSt3__123__dispatch_copy_or_moveB7v160006INS_17_ClassicAlgPolicyENS_11__move_loopIS1_EENS_14__move_trivialEPPN3MLS3GUI9ComponentES9_S9_EENS_4pairIT2_T4_EESB_T3_SC_, symObjAddr: 0x2D18, symBinAddr: 0x10000D2FC, symSize: 0x44 }
  - { offsetInCU: 0x503A, offset: 0x241BB, size: 0x8, addend: 0x0, symName: __ZNSt3__121__unwrap_and_dispatchB7v160006INS_10__overloadINS_11__move_loopINS_17_ClassicAlgPolicyEEENS_14__move_trivialEEEPPN3MLS3GUI9ComponentESB_SB_Li0EEENS_4pairIT0_T2_EESD_T1_SE_, symObjAddr: 0x2D5C, symBinAddr: 0x10000D340, symSize: 0xB4 }
  - { offsetInCU: 0x50C9, offset: 0x2424A, size: 0x8, addend: 0x0, symName: __ZNSt3__114__unwrap_rangeB7v160006IPPN3MLS3GUI9ComponentES5_EENS_4pairIT0_S7_EET_S9_, symObjAddr: 0x2E10, symBinAddr: 0x10000D3F4, symSize: 0x60 }
  - { offsetInCU: 0x525F, offset: 0x243E0, size: 0x8, addend: 0x0, symName: __ZNSt3__113__unwrap_iterB7v160006IPPN3MLS3GUI9ComponentENS_18__unwrap_iter_implIS5_Lb1EEELi0EEEDTclsrT0_8__unwrapclsr3stdE7declvalIT_EEEES9_, symObjAddr: 0x2EB8, symBinAddr: 0x10000D49C, symSize: 0x24 }
  - { offsetInCU: 0x52A4, offset: 0x24425, size: 0x8, addend: 0x0, symName: __ZNSt3__19make_pairB7v160006IPPN3MLS3GUI9ComponentES5_EENS_4pairINS_18__unwrap_ref_decayIT_E4typeENS7_IT0_E4typeEEEOS8_OSB_, symObjAddr: 0x2EDC, symBinAddr: 0x10000D4C0, symSize: 0x38 }
  - { offsetInCU: 0x52F3, offset: 0x24474, size: 0x8, addend: 0x0, symName: __ZNSt3__114__rewrap_rangeB7v160006IPPN3MLS3GUI9ComponentES5_EET_S6_T0_, symObjAddr: 0x2F14, symBinAddr: 0x10000D4F8, symSize: 0x2C }
  - { offsetInCU: 0x533F, offset: 0x244C0, size: 0x8, addend: 0x0, symName: __ZNSt3__113__rewrap_iterB7v160006IPPN3MLS3GUI9ComponentES5_NS_18__unwrap_iter_implIS5_Lb1EEEEET_S8_T0_, symObjAddr: 0x2F40, symBinAddr: 0x10000D524, symSize: 0x3C }
  - { offsetInCU: 0x5394, offset: 0x24515, size: 0x8, addend: 0x0, symName: __ZNSt3__119__copy_trivial_implB7v160006IPN3MLS3GUI9ComponentES4_EENS_4pairIPT_PT0_EES7_S7_S9_, symObjAddr: 0x2F7C, symBinAddr: 0x10000D560, symSize: 0x84 }
  - { offsetInCU: 0x53FC, offset: 0x2457D, size: 0x8, addend: 0x0, symName: __ZNSt3__19make_pairB7v160006IRPPN3MLS3GUI9ComponentES5_EENS_4pairINS_18__unwrap_ref_decayIT_E4typeENS8_IT0_E4typeEEEOS9_OSC_, symObjAddr: 0x3000, symBinAddr: 0x10000D5E4, symSize: 0x38 }
  - { offsetInCU: 0x549E, offset: 0x2461F, size: 0x8, addend: 0x0, symName: __ZNSt3__1neB7v160006IPPN3MLS3GUI9ComponentEEEbRKNS_11__wrap_iterIT_EESA_, symObjAddr: 0x3438, symBinAddr: 0x10000D85C, symSize: 0x34 }
  - { offsetInCU: 0x54E1, offset: 0x24662, size: 0x8, addend: 0x0, symName: __ZNSt3__1eqB7v160006IPPN3MLS3GUI9ComponentEEEbRKNS_11__wrap_iterIT_EESA_, symObjAddr: 0x34D4, symBinAddr: 0x10000D8F8, symSize: 0x48 }
  - { offsetInCU: 0x5867, offset: 0x249E8, size: 0x8, addend: 0x0, symName: __ZNSt3__16vectorIPN3MLS3GUI9ComponentENS_9allocatorIS4_EEE26__swap_out_circular_bufferERNS_14__split_bufferIS4_RS6_EE, symObjAddr: 0x1844, symBinAddr: 0x10000C0DC, symSize: 0x118 }
  - { offsetInCU: 0x761A, offset: 0x2679B, size: 0x8, addend: 0x0, symName: __ZN3MLS3GUI5Panel7displayEPS1_, symObjAddr: 0x0, symBinAddr: 0x10000A998, symSize: 0x74 }
  - { offsetInCU: 0x763F, offset: 0x267C0, size: 0x8, addend: 0x0, symName: __ZN3MLS3GUI5Panel3runEv, symObjAddr: 0x74, symBinAddr: 0x10000AA0C, symSize: 0x58 }
  - { offsetInCU: 0x7665, offset: 0x267E6, size: 0x8, addend: 0x0, symName: __ZN3MLS3GUI5PanelC2EP7_win_stNSt3__112basic_stringIcNS4_11char_traitsIcEENS4_9allocatorIcEEEE, symObjAddr: 0xCC, symBinAddr: 0x10000AA64, symSize: 0x80 }
  - { offsetInCU: 0x76AC, offset: 0x2682D, size: 0x8, addend: 0x0, symName: __ZNSt3__16vectorIPN3MLS3GUI9ComponentENS_9allocatorIS4_EEEC1B7v160006Ev, symObjAddr: 0x14C, symBinAddr: 0x10000AAE4, symSize: 0x2C }
  - { offsetInCU: 0x76D4, offset: 0x26855, size: 0x8, addend: 0x0, symName: __ZNSt3__16vectorIPN3MLS3GUI9ComponentENS_9allocatorIS4_EEED1B7v160006Ev, symObjAddr: 0x178, symBinAddr: 0x10000AB10, symSize: 0x2C }
  - { offsetInCU: 0x76FC, offset: 0x2687D, size: 0x8, addend: 0x0, symName: __ZN3MLS3GUI5PanelC1EP7_win_stNSt3__112basic_stringIcNS4_11char_traitsIcEENS4_9allocatorIcEEEE, symObjAddr: 0x1A4, symBinAddr: 0x10000AB3C, symSize: 0x3C }
  - { offsetInCU: 0x7743, offset: 0x268C4, size: 0x8, addend: 0x0, symName: __ZN3MLS3GUI5Panel3addEPNS0_9ComponentE, symObjAddr: 0x1E0, symBinAddr: 0x10000AB78, symSize: 0x7C }
  - { offsetInCU: 0x7777, offset: 0x268F8, size: 0x8, addend: 0x0, symName: __ZNKSt3__16vectorIPN3MLS3GUI9ComponentENS_9allocatorIS4_EEE4sizeB7v160006Ev, symObjAddr: 0x25C, symBinAddr: 0x10000ABF4, symSize: 0x28 }
  - { offsetInCU: 0x779B, offset: 0x2691C, size: 0x8, addend: 0x0, symName: __ZNSt3__16vectorIPN3MLS3GUI9ComponentENS_9allocatorIS4_EEE9push_backB7v160006ERKS4_, symObjAddr: 0x284, symBinAddr: 0x10000AC1C, symSize: 0x6C }
  - { offsetInCU: 0x77D0, offset: 0x26951, size: 0x8, addend: 0x0, symName: __ZN3MLS3GUI5Panel9scroll_upEv, symObjAddr: 0x2F0, symBinAddr: 0x10000AC88, symSize: 0xD4 }
  - { offsetInCU: 0x7813, offset: 0x26994, size: 0x8, addend: 0x0, symName: __ZN3MLS3GUI5Panel11scroll_downEv, symObjAddr: 0x3C4, symBinAddr: 0x10000AD5C, symSize: 0xC4 }
  - { offsetInCU: 0x7856, offset: 0x269D7, size: 0x8, addend: 0x0, symName: __ZN3MLS3GUI5Panel6removeEi, symObjAddr: 0x488, symBinAddr: 0x10000AE20, symSize: 0xF0 }
  - { offsetInCU: 0x788A, offset: 0x26A0B, size: 0x8, addend: 0x0, symName: __ZNSt3__16vectorIPN3MLS3GUI9ComponentENS_9allocatorIS4_EEEixB7v160006Em, symObjAddr: 0x578, symBinAddr: 0x10000AF10, symSize: 0x24 }
  - { offsetInCU: 0x78BF, offset: 0x26A40, size: 0x8, addend: 0x0, symName: __ZNSt3__16vectorIPN3MLS3GUI9ComponentENS_9allocatorIS4_EEE5eraseB7v160006ENS_11__wrap_iterIPKS4_EE, symObjAddr: 0x59C, symBinAddr: 0x10000AF34, symSize: 0xA4 }
  - { offsetInCU: 0x7912, offset: 0x26A93, size: 0x8, addend: 0x0, symName: __ZNSt3__16vectorIPN3MLS3GUI9ComponentENS_9allocatorIS4_EEE5beginB7v160006Ev, symObjAddr: 0x640, symBinAddr: 0x10000AFD8, symSize: 0x30 }
  - { offsetInCU: 0x7938, offset: 0x26AB9, size: 0x8, addend: 0x0, symName: __ZNKSt3__111__wrap_iterIPPN3MLS3GUI9ComponentEEplB7v160006El, symObjAddr: 0x670, symBinAddr: 0x10000B008, symSize: 0x3C }
  - { offsetInCU: 0x7982, offset: 0x26B03, size: 0x8, addend: 0x0, symName: __ZNSt3__111__wrap_iterIPKPN3MLS3GUI9ComponentEEC1B7v160006IPS4_EERKNS0_IT_EEPNS_9enable_ifIXsr14is_convertibleISA_S6_EE5valueEvE4typeE, symObjAddr: 0x6AC, symBinAddr: 0x10000B044, symSize: 0x3C }
  - { offsetInCU: 0x79CB, offset: 0x26B4C, size: 0x8, addend: 0x0, symName: __ZN3MLS3GUI5Panel5clearEv, symObjAddr: 0x6E8, symBinAddr: 0x10000B080, symSize: 0x30 }
  - { offsetInCU: 0x79F1, offset: 0x26B72, size: 0x8, addend: 0x0, symName: __ZNSt3__16vectorIPN3MLS3GUI9ComponentENS_9allocatorIS4_EEE5clearB7v160006Ev, symObjAddr: 0x718, symBinAddr: 0x10000B0B0, symSize: 0x4C }
  - { offsetInCU: 0x7A24, offset: 0x26BA5, size: 0x8, addend: 0x0, symName: __ZNK3MLS3GUI5Panel7displayEv, symObjAddr: 0x764, symBinAddr: 0x10000B0FC, symSize: 0x24C }
  - { offsetInCU: 0x7AC5, offset: 0x26C46, size: 0x8, addend: 0x0, symName: __ZN3MLS3GUI5Panel6updateEv, symObjAddr: 0x9B0, symBinAddr: 0x10000B348, symSize: 0x12C }
  - { offsetInCU: 0x7B31, offset: 0x26CB2, size: 0x8, addend: 0x0, symName: __ZNKSt3__16vectorIPN3MLS3GUI9ComponentENS_9allocatorIS4_EEE5beginB7v160006Ev, symObjAddr: 0xB54, symBinAddr: 0x10000B474, symSize: 0x30 }
  - { offsetInCU: 0x7B57, offset: 0x26CD8, size: 0x8, addend: 0x0, symName: __ZNKSt3__16vectorIPN3MLS3GUI9ComponentENS_9allocatorIS4_EEE3endB7v160006Ev, symObjAddr: 0xB84, symBinAddr: 0x10000B4A4, symSize: 0x30 }
  - { offsetInCU: 0x7B7D, offset: 0x26CFE, size: 0x8, addend: 0x0, symName: __ZNKSt3__111__wrap_iterIPKPN3MLS3GUI9ComponentEEdeB7v160006Ev, symObjAddr: 0xBE8, symBinAddr: 0x10000B508, symSize: 0x18 }
  - { offsetInCU: 0x7BA1, offset: 0x26D22, size: 0x8, addend: 0x0, symName: __ZNSt3__111__wrap_iterIPKPN3MLS3GUI9ComponentEEppB7v160006Ev, symObjAddr: 0xC00, symBinAddr: 0x10000B520, symSize: 0x20 }
  - { offsetInCU: 0x7BC5, offset: 0x26D46, size: 0x8, addend: 0x0, symName: __ZNSt3__16vectorIPN3MLS3GUI9ComponentENS_9allocatorIS4_EEE3endB7v160006Ev, symObjAddr: 0xC9C, symBinAddr: 0x10000B5BC, symSize: 0x30 }
  - { offsetInCU: 0x7BEB, offset: 0x26D6C, size: 0x8, addend: 0x0, symName: __ZNKSt3__111__wrap_iterIPKPN3MLS3GUI9ComponentEE4baseB7v160006Ev, symObjAddr: 0xD90, symBinAddr: 0x10000B6B0, symSize: 0x18 }
  - { offsetInCU: 0x7C0F, offset: 0x26D90, size: 0x8, addend: 0x0, symName: __ZNSt3__16vectorIPN3MLS3GUI9ComponentENS_9allocatorIS4_EEEC2B7v160006Ev, symObjAddr: 0xDA8, symBinAddr: 0x10000B6C8, symSize: 0x58 }
  - { offsetInCU: 0x7C41, offset: 0x26DC2, size: 0x8, addend: 0x0, symName: __ZNSt3__117__compressed_pairIPPN3MLS3GUI9ComponentENS_9allocatorIS4_EEEC1B7v160006IDnNS_18__default_init_tagEEEOT_OT0_, symObjAddr: 0xE00, symBinAddr: 0x10000B720, symSize: 0x3C }
  - { offsetInCU: 0x7C97, offset: 0x26E18, size: 0x8, addend: 0x0, symName: __ZNSt3__117__compressed_pairIPPN3MLS3GUI9ComponentENS_9allocatorIS4_EEEC2B7v160006IDnNS_18__default_init_tagEEEOT_OT0_, symObjAddr: 0xE58, symBinAddr: 0x10000B76C, symSize: 0x40 }
  - { offsetInCU: 0x7CEE, offset: 0x26E6F, size: 0x8, addend: 0x0, symName: __ZNSt3__122__compressed_pair_elemIPPN3MLS3GUI9ComponentELi0ELb0EEC2B7v160006IDnvEEOT_, symObjAddr: 0xE98, symBinAddr: 0x10000B7AC, symSize: 0x1C }
  - { offsetInCU: 0x7D2D, offset: 0x26EAE, size: 0x8, addend: 0x0, symName: __ZNSt3__122__compressed_pair_elemINS_9allocatorIPN3MLS3GUI9ComponentEEELi1ELb1EEC2B7v160006ENS_18__default_init_tagE, symObjAddr: 0xEB4, symBinAddr: 0x10000B7C8, symSize: 0x2C }
  - { offsetInCU: 0x7D5F, offset: 0x26EE0, size: 0x8, addend: 0x0, symName: __ZNSt3__19allocatorIPN3MLS3GUI9ComponentEEC2B7v160006Ev, symObjAddr: 0xEE0, symBinAddr: 0x10000B7F4, symSize: 0x2C }
  - { offsetInCU: 0x7D88, offset: 0x26F09, size: 0x8, addend: 0x0, symName: __ZNSt3__116__non_trivial_ifILb1ENS_9allocatorIPN3MLS3GUI9ComponentEEEEC2B7v160006Ev, symObjAddr: 0xF0C, symBinAddr: 0x10000B820, symSize: 0x14 }
  - { offsetInCU: 0x7DAF, offset: 0x26F30, size: 0x8, addend: 0x0, symName: __ZNSt3__16vectorIPN3MLS3GUI9ComponentENS_9allocatorIS4_EEED2B7v160006Ev, symObjAddr: 0xF20, symBinAddr: 0x10000B834, symSize: 0x44 }
  - { offsetInCU: 0x7DD7, offset: 0x26F58, size: 0x8, addend: 0x0, symName: __ZNSt3__16vectorIPN3MLS3GUI9ComponentENS_9allocatorIS4_EEE16__destroy_vectorC1ERS7_, symObjAddr: 0xF64, symBinAddr: 0x10000B878, symSize: 0x34 }
  - { offsetInCU: 0x7E0E, offset: 0x26F8F, size: 0x8, addend: 0x0, symName: __ZNSt3__16vectorIPN3MLS3GUI9ComponentENS_9allocatorIS4_EEE16__destroy_vectorclB7v160006Ev, symObjAddr: 0xF98, symBinAddr: 0x10000B8AC, symSize: 0x9C }
  - { offsetInCU: 0x7E33, offset: 0x26FB4, size: 0x8, addend: 0x0, symName: __ZNSt3__16vectorIPN3MLS3GUI9ComponentENS_9allocatorIS4_EEE16__destroy_vectorC2ERS7_, symObjAddr: 0x1034, symBinAddr: 0x10000B948, symSize: 0x20 }
  - { offsetInCU: 0x7E69, offset: 0x26FEA, size: 0x8, addend: 0x0, symName: __ZNKSt3__16vectorIPN3MLS3GUI9ComponentENS_9allocatorIS4_EEE17__annotate_deleteB7v160006Ev, symObjAddr: 0x1054, symBinAddr: 0x10000B968, symSize: 0xB8 }
  - { offsetInCU: 0x7E8D, offset: 0x2700E, size: 0x8, addend: 0x0, symName: __ZNSt3__16vectorIPN3MLS3GUI9ComponentENS_9allocatorIS4_EEE7__clearB7v160006Ev, symObjAddr: 0x111C, symBinAddr: 0x10000BA30, symSize: 0x28 }
  - { offsetInCU: 0x7EB2, offset: 0x27033, size: 0x8, addend: 0x0, symName: __ZNSt3__116allocator_traitsINS_9allocatorIPN3MLS3GUI9ComponentEEEE10deallocateB7v160006ERS6_PS5_m, symObjAddr: 0x1144, symBinAddr: 0x10000BA58, symSize: 0x34 }
  - { offsetInCU: 0x7EF2, offset: 0x27073, size: 0x8, addend: 0x0, symName: __ZNSt3__16vectorIPN3MLS3GUI9ComponentENS_9allocatorIS4_EEE7__allocB7v160006Ev, symObjAddr: 0x1178, symBinAddr: 0x10000BA8C, symSize: 0x28 }
  - { offsetInCU: 0x7F16, offset: 0x27097, size: 0x8, addend: 0x0, symName: __ZNKSt3__16vectorIPN3MLS3GUI9ComponentENS_9allocatorIS4_EEE8capacityB7v160006Ev, symObjAddr: 0x11A0, symBinAddr: 0x10000BAB4, symSize: 0x40 }
  - { offsetInCU: 0x7F3A, offset: 0x270BB, size: 0x8, addend: 0x0, symName: __ZNKSt3__16vectorIPN3MLS3GUI9ComponentENS_9allocatorIS4_EEE31__annotate_contiguous_containerB7v160006EPKvS9_S9_S9_, symObjAddr: 0x11E0, symBinAddr: 0x10000BAF4, symSize: 0x20 }
  - { offsetInCU: 0x7F8A, offset: 0x2710B, size: 0x8, addend: 0x0, symName: __ZNKSt3__16vectorIPN3MLS3GUI9ComponentENS_9allocatorIS4_EEE4dataB7v160006Ev, symObjAddr: 0x1200, symBinAddr: 0x10000BB14, symSize: 0x28 }
  - { offsetInCU: 0x7FAE, offset: 0x2712F, size: 0x8, addend: 0x0, symName: __ZNSt3__16vectorIPN3MLS3GUI9ComponentENS_9allocatorIS4_EEE22__base_destruct_at_endB7v160006EPS4_, symObjAddr: 0x123C, symBinAddr: 0x10000BB50, symSize: 0x8C }
  - { offsetInCU: 0x7FF1, offset: 0x27172, size: 0x8, addend: 0x0, symName: __ZNSt3__116allocator_traitsINS_9allocatorIPN3MLS3GUI9ComponentEEEE7destroyB7v160006IS5_vEEvRS6_PT_, symObjAddr: 0x12C8, symBinAddr: 0x10000BBDC, symSize: 0x2C }
  - { offsetInCU: 0x802C, offset: 0x271AD, size: 0x8, addend: 0x0, symName: __ZNSt3__19allocatorIPN3MLS3GUI9ComponentEE7destroyB7v160006EPS4_, symObjAddr: 0x12F4, symBinAddr: 0x10000BC08, symSize: 0x14 }
  - { offsetInCU: 0x805E, offset: 0x271DF, size: 0x8, addend: 0x0, symName: __ZNSt3__19allocatorIPN3MLS3GUI9ComponentEE10deallocateB7v160006EPS4_m, symObjAddr: 0x1308, symBinAddr: 0x10000BC1C, symSize: 0x40 }
  - { offsetInCU: 0x809E, offset: 0x2721F, size: 0x8, addend: 0x0, symName: __ZNSt3__117__compressed_pairIPPN3MLS3GUI9ComponentENS_9allocatorIS4_EEE6secondB7v160006Ev, symObjAddr: 0x13C4, symBinAddr: 0x10000BC5C, symSize: 0x24 }
  - { offsetInCU: 0x80C2, offset: 0x27243, size: 0x8, addend: 0x0, symName: __ZNSt3__122__compressed_pair_elemINS_9allocatorIPN3MLS3GUI9ComponentEEELi1ELb1EE5__getB7v160006Ev, symObjAddr: 0x13E8, symBinAddr: 0x10000BC80, symSize: 0x14 }
  - { offsetInCU: 0x80E6, offset: 0x27267, size: 0x8, addend: 0x0, symName: __ZNKSt3__16vectorIPN3MLS3GUI9ComponentENS_9allocatorIS4_EEE9__end_capB7v160006Ev, symObjAddr: 0x13FC, symBinAddr: 0x10000BC94, symSize: 0x28 }
  - { offsetInCU: 0x810A, offset: 0x2728B, size: 0x8, addend: 0x0, symName: __ZNKSt3__117__compressed_pairIPPN3MLS3GUI9ComponentENS_9allocatorIS4_EEE5firstB7v160006Ev, symObjAddr: 0x1424, symBinAddr: 0x10000BCBC, symSize: 0x24 }
  - { offsetInCU: 0x812E, offset: 0x272AF, size: 0x8, addend: 0x0, symName: __ZNKSt3__122__compressed_pair_elemIPPN3MLS3GUI9ComponentELi0ELb0EE5__getB7v160006Ev, symObjAddr: 0x1448, symBinAddr: 0x10000BCE0, symSize: 0x14 }
  - { offsetInCU: 0x8152, offset: 0x272D3, size: 0x8, addend: 0x0, symName: __ZNSt3__16vectorIPN3MLS3GUI9ComponentENS_9allocatorIS4_EEE9__end_capB7v160006Ev, symObjAddr: 0x145C, symBinAddr: 0x10000BCF4, symSize: 0x28 }
  - { offsetInCU: 0x8176, offset: 0x272F7, size: 0x8, addend: 0x0, symName: __ZNSt3__16vectorIPN3MLS3GUI9ComponentENS_9allocatorIS4_EEE22__construct_one_at_endB7v160006IJRKS4_EEEvDpOT_, symObjAddr: 0x1484, symBinAddr: 0x10000BD1C, symSize: 0x90 }
  - { offsetInCU: 0x81C3, offset: 0x27344, size: 0x8, addend: 0x0, symName: __ZNSt3__16vectorIPN3MLS3GUI9ComponentENS_9allocatorIS4_EEE21__push_back_slow_pathIRKS4_EEvOT_, symObjAddr: 0x1514, symBinAddr: 0x10000BDAC, symSize: 0xD8 }
  - { offsetInCU: 0x821F, offset: 0x273A0, size: 0x8, addend: 0x0, symName: __ZNSt3__117__compressed_pairIPPN3MLS3GUI9ComponentENS_9allocatorIS4_EEE5firstB7v160006Ev, symObjAddr: 0x15EC, symBinAddr: 0x10000BE84, symSize: 0x24 }
  - { offsetInCU: 0x8243, offset: 0x273C4, size: 0x8, addend: 0x0, symName: __ZNSt3__122__compressed_pair_elemIPPN3MLS3GUI9ComponentELi0ELb0EE5__getB7v160006Ev, symObjAddr: 0x1610, symBinAddr: 0x10000BEA8, symSize: 0x14 }
  - { offsetInCU: 0x8280, offset: 0x27401, size: 0x8, addend: 0x0, symName: __ZNSt3__16vectorIPN3MLS3GUI9ComponentENS_9allocatorIS4_EEE21_ConstructTransactionC1B7v160006ERS7_m, symObjAddr: 0x1624, symBinAddr: 0x10000BEBC, symSize: 0x3C }
  - { offsetInCU: 0x82C7, offset: 0x27448, size: 0x8, addend: 0x0, symName: __ZNSt3__116allocator_traitsINS_9allocatorIPN3MLS3GUI9ComponentEEEE9constructB7v160006IS5_JRKS5_EvEEvRS6_PT_DpOT0_, symObjAddr: 0x1660, symBinAddr: 0x10000BEF8, symSize: 0x34 }
  - { offsetInCU: 0x831C, offset: 0x2749D, size: 0x8, addend: 0x0, symName: __ZNSt3__16vectorIPN3MLS3GUI9ComponentENS_9allocatorIS4_EEE21_ConstructTransactionD1B7v160006Ev, symObjAddr: 0x1694, symBinAddr: 0x10000BF2C, symSize: 0x2C }
  - { offsetInCU: 0x8345, offset: 0x274C6, size: 0x8, addend: 0x0, symName: __ZNSt3__16vectorIPN3MLS3GUI9ComponentENS_9allocatorIS4_EEE21_ConstructTransactionC2B7v160006ERS7_m, symObjAddr: 0x16C0, symBinAddr: 0x10000BF58, symSize: 0x44 }
  - { offsetInCU: 0x838A, offset: 0x2750B, size: 0x8, addend: 0x0, symName: __ZNSt3__19allocatorIPN3MLS3GUI9ComponentEE9constructB7v160006IS4_JRKS4_EEEvPT_DpOT0_, symObjAddr: 0x1704, symBinAddr: 0x10000BF9C, symSize: 0x28 }
  - { offsetInCU: 0x83DF, offset: 0x27560, size: 0x8, addend: 0x0, symName: __ZNSt3__16vectorIPN3MLS3GUI9ComponentENS_9allocatorIS4_EEE21_ConstructTransactionD2B7v160006Ev, symObjAddr: 0x172C, symBinAddr: 0x10000BFC4, symSize: 0x20 }
  - { offsetInCU: 0x8406, offset: 0x27587, size: 0x8, addend: 0x0, symName: __ZNKSt3__16vectorIPN3MLS3GUI9ComponentENS_9allocatorIS4_EEE11__recommendB7v160006Em, symObjAddr: 0x174C, symBinAddr: 0x10000BFE4, symSize: 0xB4 }
  - { offsetInCU: 0x845A, offset: 0x275DB, size: 0x8, addend: 0x0, symName: __ZNSt3__114__split_bufferIPN3MLS3GUI9ComponentERNS_9allocatorIS4_EEEC1EmmS7_, symObjAddr: 0x1800, symBinAddr: 0x10000C098, symSize: 0x44 }
  - { offsetInCU: 0x84AF, offset: 0x27630, size: 0x8, addend: 0x0, symName: __ZNSt3__114__split_bufferIPN3MLS3GUI9ComponentERNS_9allocatorIS4_EEED1Ev, symObjAddr: 0x195C, symBinAddr: 0x10000C1F4, symSize: 0x2C }
  - { offsetInCU: 0x84D9, offset: 0x2765A, size: 0x8, addend: 0x0, symName: __ZNKSt3__16vectorIPN3MLS3GUI9ComponentENS_9allocatorIS4_EEE8max_sizeEv, symObjAddr: 0x1988, symBinAddr: 0x10000C220, symSize: 0x60 }
  - { offsetInCU: 0x84FF, offset: 0x27680, size: 0x8, addend: 0x0, symName: __ZNKSt3__16vectorIPN3MLS3GUI9ComponentENS_9allocatorIS4_EEE20__throw_length_errorB7v160006Ev, symObjAddr: 0x19E8, symBinAddr: 0x10000C280, symSize: 0x1C }
  - { offsetInCU: 0x852E, offset: 0x276AF, size: 0x8, addend: 0x0, symName: __ZNSt3__116allocator_traitsINS_9allocatorIPN3MLS3GUI9ComponentEEEE8max_sizeB7v160006IS6_vEEmRKS6_, symObjAddr: 0x1A5C, symBinAddr: 0x10000C29C, symSize: 0x24 }
  - { offsetInCU: 0x855A, offset: 0x276DB, size: 0x8, addend: 0x0, symName: __ZNKSt3__16vectorIPN3MLS3GUI9ComponentENS_9allocatorIS4_EEE7__allocB7v160006Ev, symObjAddr: 0x1A80, symBinAddr: 0x10000C2C0, symSize: 0x28 }
  - { offsetInCU: 0x857E, offset: 0x276FF, size: 0x8, addend: 0x0, symName: __ZNKSt3__19allocatorIPN3MLS3GUI9ComponentEE8max_sizeB7v160006Ev, symObjAddr: 0x1B44, symBinAddr: 0x10000C2E8, symSize: 0x14 }
  - { offsetInCU: 0x85A2, offset: 0x27723, size: 0x8, addend: 0x0, symName: __ZNKSt3__117__compressed_pairIPPN3MLS3GUI9ComponentENS_9allocatorIS4_EEE6secondB7v160006Ev, symObjAddr: 0x1B58, symBinAddr: 0x10000C2FC, symSize: 0x24 }
  - { offsetInCU: 0x85C6, offset: 0x27747, size: 0x8, addend: 0x0, symName: __ZNKSt3__122__compressed_pair_elemINS_9allocatorIPN3MLS3GUI9ComponentEEELi1ELb1EE5__getB7v160006Ev, symObjAddr: 0x1B7C, symBinAddr: 0x10000C320, symSize: 0x14 }
  - { offsetInCU: 0x85EB, offset: 0x2776C, size: 0x8, addend: 0x0, symName: __ZNSt3__114__split_bufferIPN3MLS3GUI9ComponentERNS_9allocatorIS4_EEEC2EmmS7_, symObjAddr: 0x1CD0, symBinAddr: 0x10000C334, symSize: 0xD4 }
  - { offsetInCU: 0x865C, offset: 0x277DD, size: 0x8, addend: 0x0, symName: __ZNSt3__117__compressed_pairIPPN3MLS3GUI9ComponentERNS_9allocatorIS4_EEEC1B7v160006IDnS8_EEOT_OT0_, symObjAddr: 0x1DA4, symBinAddr: 0x10000C408, symSize: 0x3C }
  - { offsetInCU: 0x86B2, offset: 0x27833, size: 0x8, addend: 0x0, symName: __ZNSt3__114__split_bufferIPN3MLS3GUI9ComponentERNS_9allocatorIS4_EEE7__allocB7v160006Ev, symObjAddr: 0x1E20, symBinAddr: 0x10000C484, symSize: 0x28 }
  - { offsetInCU: 0x86D6, offset: 0x27857, size: 0x8, addend: 0x0, symName: __ZNSt3__114__split_bufferIPN3MLS3GUI9ComponentERNS_9allocatorIS4_EEE9__end_capB7v160006Ev, symObjAddr: 0x1E48, symBinAddr: 0x10000C4AC, symSize: 0x28 }
  - { offsetInCU: 0x86FA, offset: 0x2787B, size: 0x8, addend: 0x0, symName: __ZNSt3__117__compressed_pairIPPN3MLS3GUI9ComponentERNS_9allocatorIS4_EEEC2B7v160006IDnS8_EEOT_OT0_, symObjAddr: 0x1E70, symBinAddr: 0x10000C4D4, symSize: 0x48 }
  - { offsetInCU: 0x8751, offset: 0x278D2, size: 0x8, addend: 0x0, symName: __ZNSt3__122__compressed_pair_elemIRNS_9allocatorIPN3MLS3GUI9ComponentEEELi1ELb0EEC2B7v160006IS7_vEEOT_, symObjAddr: 0x1EB8, symBinAddr: 0x10000C51C, symSize: 0x20 }
  - { offsetInCU: 0x8790, offset: 0x27911, size: 0x8, addend: 0x0, symName: __ZNSt3__19allocatorIPN3MLS3GUI9ComponentEE8allocateB7v160006Em, symObjAddr: 0x1ED8, symBinAddr: 0x10000C53C, symSize: 0x58 }
  - { offsetInCU: 0x87C2, offset: 0x27943, size: 0x8, addend: 0x0, symName: __ZNSt3__117__compressed_pairIPPN3MLS3GUI9ComponentERNS_9allocatorIS4_EEE6secondB7v160006Ev, symObjAddr: 0x1FB0, symBinAddr: 0x10000C594, symSize: 0x28 }
  - { offsetInCU: 0x87E6, offset: 0x27967, size: 0x8, addend: 0x0, symName: __ZNSt3__122__compressed_pair_elemIRNS_9allocatorIPN3MLS3GUI9ComponentEEELi1ELb0EE5__getB7v160006Ev, symObjAddr: 0x1FD8, symBinAddr: 0x10000C5BC, symSize: 0x18 }
  - { offsetInCU: 0x880A, offset: 0x2798B, size: 0x8, addend: 0x0, symName: __ZNSt3__117__compressed_pairIPPN3MLS3GUI9ComponentERNS_9allocatorIS4_EEE5firstB7v160006Ev, symObjAddr: 0x1FF0, symBinAddr: 0x10000C5D4, symSize: 0x24 }
  - { offsetInCU: 0x882E, offset: 0x279AF, size: 0x8, addend: 0x0, symName: __ZNSt3__116reverse_iteratorIPPN3MLS3GUI9ComponentEEC1B7v160006ES5_, symObjAddr: 0x208C, symBinAddr: 0x10000C670, symSize: 0x34 }
  - { offsetInCU: 0x8864, offset: 0x279E5, size: 0x8, addend: 0x0, symName: __ZNKSt3__116reverse_iteratorIPPN3MLS3GUI9ComponentEE4baseB7v160006Ev, symObjAddr: 0x20C0, symBinAddr: 0x10000C6A4, symSize: 0x18 }
  - { offsetInCU: 0x8888, offset: 0x27A09, size: 0x8, addend: 0x0, symName: __ZNKSt3__16vectorIPN3MLS3GUI9ComponentENS_9allocatorIS4_EEE14__annotate_newB7v160006Em, symObjAddr: 0x2114, symBinAddr: 0x10000C6F8, symSize: 0xAC }
  - { offsetInCU: 0x88DE, offset: 0x27A5F, size: 0x8, addend: 0x0, symName: __ZNKSt3__111__move_loopINS_17_ClassicAlgPolicyEEclB7v160006INS_16reverse_iteratorIPPN3MLS3GUI9ComponentEEESA_SA_EENS_4pairIT_T1_EESC_T0_SD_, symObjAddr: 0x24C0, symBinAddr: 0x10000CAA4, symSize: 0xA0 }
  - { offsetInCU: 0x894D, offset: 0x27ACE, size: 0x8, addend: 0x0, symName: __ZNSt3__18_IterOpsINS_17_ClassicAlgPolicyEE11__iter_moveB7v160006IRNS_16reverse_iteratorIPPN3MLS3GUI9ComponentEEEEENS_9enable_ifIXsr12is_referenceIDTdeclsr3stdE7declvalIRT_EEEEE5valueEDTclsr3stdE4movedeclsr3stdE7declvalISE_EEEEE4typeEOSD_, symObjAddr: 0x26F4, symBinAddr: 0x10000CCD8, symSize: 0x28 }
  - { offsetInCU: 0x8977, offset: 0x27AF8, size: 0x8, addend: 0x0, symName: __ZNKSt3__116reverse_iteratorIPPN3MLS3GUI9ComponentEEdeB7v160006Ev, symObjAddr: 0x271C, symBinAddr: 0x10000CD00, symSize: 0x28 }
  - { offsetInCU: 0x89A9, offset: 0x27B2A, size: 0x8, addend: 0x0, symName: __ZNSt3__116reverse_iteratorIPPN3MLS3GUI9ComponentEEppB7v160006Ev, symObjAddr: 0x2744, symBinAddr: 0x10000CD28, symSize: 0x20 }
  - { offsetInCU: 0x89CE, offset: 0x27B4F, size: 0x8, addend: 0x0, symName: __ZNSt3__18_IterOpsINS_17_ClassicAlgPolicyEE25__validate_iter_referenceB7v160006IRNS_16reverse_iteratorIPPN3MLS3GUI9ComponentEEEEEvv, symObjAddr: 0x2764, symBinAddr: 0x10000CD48, symSize: 0x4 }
  - { offsetInCU: 0x89EB, offset: 0x27B6C, size: 0x8, addend: 0x0, symName: __ZNSt3__118__unwrap_iter_implINS_16reverse_iteratorIPPN3MLS3GUI9ComponentEEELb0EE8__unwrapB7v160006ES7_, symObjAddr: 0x2768, symBinAddr: 0x10000CD4C, symSize: 0x24 }
  - { offsetInCU: 0x8A11, offset: 0x27B92, size: 0x8, addend: 0x0, symName: __ZNSt3__14pairINS_16reverse_iteratorIPPN3MLS3GUI9ComponentEEES7_EC1B7v160006IS7_S7_LPv0EEEOT_OT0_, symObjAddr: 0x278C, symBinAddr: 0x10000CD70, symSize: 0x3C }
  - { offsetInCU: 0x8A6E, offset: 0x27BEF, size: 0x8, addend: 0x0, symName: __ZNSt3__14pairINS_16reverse_iteratorIPPN3MLS3GUI9ComponentEEES7_EC2B7v160006IS7_S7_LPv0EEEOT_OT0_, symObjAddr: 0x27C8, symBinAddr: 0x10000CDAC, symSize: 0x34 }
  - { offsetInCU: 0x8ACA, offset: 0x27C4B, size: 0x8, addend: 0x0, symName: __ZNSt3__118__unwrap_iter_implINS_16reverse_iteratorIPPN3MLS3GUI9ComponentEEELb0EE8__rewrapB7v160006ES7_S7_, symObjAddr: 0x27FC, symBinAddr: 0x10000CDE0, symSize: 0x2C }
  - { offsetInCU: 0x8AF6, offset: 0x27C77, size: 0x8, addend: 0x0, symName: __ZNSt3__116reverse_iteratorIPPN3MLS3GUI9ComponentEEC2B7v160006ES5_, symObjAddr: 0x2828, symBinAddr: 0x10000CE0C, symSize: 0x28 }
  - { offsetInCU: 0x8B2C, offset: 0x27CAD, size: 0x8, addend: 0x0, symName: __ZNSt3__114__split_bufferIPN3MLS3GUI9ComponentERNS_9allocatorIS4_EEED2Ev, symObjAddr: 0x2850, symBinAddr: 0x10000CE34, symSize: 0x8C }
  - { offsetInCU: 0x8B56, offset: 0x27CD7, size: 0x8, addend: 0x0, symName: __ZNSt3__114__split_bufferIPN3MLS3GUI9ComponentERNS_9allocatorIS4_EEE5clearB7v160006Ev, symObjAddr: 0x28DC, symBinAddr: 0x10000CEC0, symSize: 0x28 }
  - { offsetInCU: 0x8B7A, offset: 0x27CFB, size: 0x8, addend: 0x0, symName: __ZNKSt3__114__split_bufferIPN3MLS3GUI9ComponentERNS_9allocatorIS4_EEE8capacityB7v160006Ev, symObjAddr: 0x2904, symBinAddr: 0x10000CEE8, symSize: 0x40 }
  - { offsetInCU: 0x8B9E, offset: 0x27D1F, size: 0x8, addend: 0x0, symName: __ZNSt3__114__split_bufferIPN3MLS3GUI9ComponentERNS_9allocatorIS4_EEE17__destruct_at_endB7v160006EPS4_, symObjAddr: 0x2944, symBinAddr: 0x10000CF28, symSize: 0x2C }
  - { offsetInCU: 0x8BD0, offset: 0x27D51, size: 0x8, addend: 0x0, symName: __ZNSt3__114__split_bufferIPN3MLS3GUI9ComponentERNS_9allocatorIS4_EEE17__destruct_at_endB7v160006EPS4_NS_17integral_constantIbLb0EEE, symObjAddr: 0x2970, symBinAddr: 0x10000CF54, symSize: 0x80 }
  - { offsetInCU: 0x8C0E, offset: 0x27D8F, size: 0x8, addend: 0x0, symName: __ZNKSt3__114__split_bufferIPN3MLS3GUI9ComponentERNS_9allocatorIS4_EEE9__end_capB7v160006Ev, symObjAddr: 0x29F0, symBinAddr: 0x10000CFD4, symSize: 0x28 }
  - { offsetInCU: 0x8C32, offset: 0x27DB3, size: 0x8, addend: 0x0, symName: __ZNKSt3__117__compressed_pairIPPN3MLS3GUI9ComponentERNS_9allocatorIS4_EEE5firstB7v160006Ev, symObjAddr: 0x2A18, symBinAddr: 0x10000CFFC, symSize: 0x24 }
  - { offsetInCU: 0x8C56, offset: 0x27DD7, size: 0x8, addend: 0x0, symName: __ZNSt3__16vectorIPN3MLS3GUI9ComponentENS_9allocatorIS4_EEE11__make_iterB7v160006EPS4_, symObjAddr: 0x2A3C, symBinAddr: 0x10000D020, symSize: 0x34 }
  - { offsetInCU: 0x8C89, offset: 0x27E0A, size: 0x8, addend: 0x0, symName: __ZNSt3__111__wrap_iterIPPN3MLS3GUI9ComponentEEC1B7v160006EPKvS5_, symObjAddr: 0x2A70, symBinAddr: 0x10000D054, symSize: 0x3C }
  - { offsetInCU: 0x8CCE, offset: 0x27E4F, size: 0x8, addend: 0x0, symName: __ZNSt3__111__wrap_iterIPPN3MLS3GUI9ComponentEEC2B7v160006EPKvS5_, symObjAddr: 0x2AAC, symBinAddr: 0x10000D090, symSize: 0x24 }
  - { offsetInCU: 0x8D11, offset: 0x27E92, size: 0x8, addend: 0x0, symName: __ZNSt3__111__wrap_iterIPPN3MLS3GUI9ComponentEEpLB7v160006El, symObjAddr: 0x2AD0, symBinAddr: 0x10000D0B4, symSize: 0x28 }
  - { offsetInCU: 0x8D43, offset: 0x27EC4, size: 0x8, addend: 0x0, symName: __ZNKSt3__16vectorIPN3MLS3GUI9ComponentENS_9allocatorIS4_EEE6cbeginB7v160006Ev, symObjAddr: 0x2B40, symBinAddr: 0x10000D124, symSize: 0x2C }
  - { offsetInCU: 0x8D67, offset: 0x27EE8, size: 0x8, addend: 0x0, symName: __ZNSt3__16vectorIPN3MLS3GUI9ComponentENS_9allocatorIS4_EEE17__destruct_at_endB7v160006EPS4_, symObjAddr: 0x2B6C, symBinAddr: 0x10000D150, symSize: 0x60 }
  - { offsetInCU: 0x8DA9, offset: 0x27F2A, size: 0x8, addend: 0x0, symName: __ZNSt3__16vectorIPN3MLS3GUI9ComponentENS_9allocatorIS4_EEE27__invalidate_iterators_pastB7v160006EPS4_, symObjAddr: 0x2C0C, symBinAddr: 0x10000D1F0, symSize: 0x14 }
  - { offsetInCU: 0x8DDE, offset: 0x27F5F, size: 0x8, addend: 0x0, symName: __ZNKSt3__16vectorIPN3MLS3GUI9ComponentENS_9allocatorIS4_EEE17__annotate_shrinkB7v160006Em, symObjAddr: 0x2C20, symBinAddr: 0x10000D204, symSize: 0xB4 }
  - { offsetInCU: 0x8E34, offset: 0x27FB5, size: 0x8, addend: 0x0, symName: __ZNKSt3__114__move_trivialclB7v160006IPN3MLS3GUI9ComponentES5_Li0EEENS_4pairIPT_PT0_EES8_S8_SA_, symObjAddr: 0x2E70, symBinAddr: 0x10000D454, symSize: 0x48 }
  - { offsetInCU: 0x8EA0, offset: 0x28021, size: 0x8, addend: 0x0, symName: __ZNSt3__14pairIPPN3MLS3GUI9ComponentES5_EC1B7v160006IRS5_S5_LPv0EEEOT_OT0_, symObjAddr: 0x3038, symBinAddr: 0x10000D61C, symSize: 0x3C }
  - { offsetInCU: 0x8EFD, offset: 0x2807E, size: 0x8, addend: 0x0, symName: __ZNSt3__14pairIPPN3MLS3GUI9ComponentES5_EC2B7v160006IRS5_S5_LPv0EEEOT_OT0_, symObjAddr: 0x3074, symBinAddr: 0x10000D658, symSize: 0x34 }
  - { offsetInCU: 0x8F59, offset: 0x280DA, size: 0x8, addend: 0x0, symName: __ZNSt3__118__unwrap_iter_implIPPN3MLS3GUI9ComponentELb1EE8__unwrapB7v160006ES5_, symObjAddr: 0x30A8, symBinAddr: 0x10000D68C, symSize: 0x24 }
  - { offsetInCU: 0x8F7A, offset: 0x280FB, size: 0x8, addend: 0x0, symName: __ZNSt3__14pairIPPN3MLS3GUI9ComponentES5_EC1B7v160006IS5_S5_LPv0EEEOT_OT0_, symObjAddr: 0x30CC, symBinAddr: 0x10000D6B0, symSize: 0x3C }
  - { offsetInCU: 0x8FD7, offset: 0x28158, size: 0x8, addend: 0x0, symName: __ZNSt3__14pairIPPN3MLS3GUI9ComponentES5_EC2B7v160006IS5_S5_LPv0EEEOT_OT0_, symObjAddr: 0x3108, symBinAddr: 0x10000D6EC, symSize: 0x34 }
  - { offsetInCU: 0x9033, offset: 0x281B4, size: 0x8, addend: 0x0, symName: __ZNSt3__118__unwrap_iter_implIPPN3MLS3GUI9ComponentELb1EE8__rewrapB7v160006ES5_S5_, symObjAddr: 0x313C, symBinAddr: 0x10000D720, symSize: 0x50 }
  - { offsetInCU: 0x9062, offset: 0x281E3, size: 0x8, addend: 0x0, symName: __ZNSt3__111__wrap_iterIPKPN3MLS3GUI9ComponentEEC2B7v160006IPS4_EERKNS0_IT_EEPNS_9enable_ifIXsr14is_convertibleISA_S6_EE5valueEvE4typeE, symObjAddr: 0x318C, symBinAddr: 0x10000D770, symSize: 0x40 }
  - { offsetInCU: 0x90AB, offset: 0x2822C, size: 0x8, addend: 0x0, symName: __ZNKSt3__111__wrap_iterIPPN3MLS3GUI9ComponentEE4baseB7v160006Ev, symObjAddr: 0x31CC, symBinAddr: 0x10000D7B0, symSize: 0x18 }
  - { offsetInCU: 0x90CF, offset: 0x28250, size: 0x8, addend: 0x0, symName: __ZNKSt3__16vectorIPN3MLS3GUI9ComponentENS_9allocatorIS4_EEE11__make_iterB7v160006EPKS4_, symObjAddr: 0x33A4, symBinAddr: 0x10000D7C8, symSize: 0x34 }
  - { offsetInCU: 0x9102, offset: 0x28283, size: 0x8, addend: 0x0, symName: __ZNSt3__111__wrap_iterIPKPN3MLS3GUI9ComponentEEC1B7v160006EPKvS6_, symObjAddr: 0x33D8, symBinAddr: 0x10000D7FC, symSize: 0x3C }
  - { offsetInCU: 0x9147, offset: 0x282C8, size: 0x8, addend: 0x0, symName: __ZNSt3__111__wrap_iterIPKPN3MLS3GUI9ComponentEEC2B7v160006EPKvS6_, symObjAddr: 0x3414, symBinAddr: 0x10000D838, symSize: 0x24 }
  - { offsetInCU: 0x919F, offset: 0x28320, size: 0x8, addend: 0x0, symName: '__ZZN3MLS3GUI5Panel9scroll_upEvENK3$_0clEPKNS0_9ComponentE', symObjAddr: 0x346C, symBinAddr: 0x10000D890, symSize: 0x30 }
  - { offsetInCU: 0x91D4, offset: 0x28355, size: 0x8, addend: 0x0, symName: __ZNKSt3__111__wrap_iterIPPN3MLS3GUI9ComponentEEdeB7v160006Ev, symObjAddr: 0x349C, symBinAddr: 0x10000D8C0, symSize: 0x18 }
  - { offsetInCU: 0x91F8, offset: 0x28379, size: 0x8, addend: 0x0, symName: __ZNSt3__111__wrap_iterIPPN3MLS3GUI9ComponentEEppB7v160006Ev, symObjAddr: 0x34B4, symBinAddr: 0x10000D8D8, symSize: 0x20 }
  - { offsetInCU: 0x9227, offset: 0x283A8, size: 0x8, addend: 0x0, symName: '__ZZN3MLS3GUI5Panel11scroll_downEvENK3$_1clEPKNS0_9ComponentE', symObjAddr: 0x351C, symBinAddr: 0x10000D940, symSize: 0x30 }
  - { offsetInCU: 0x46FB, offset: 0x2CB6E, size: 0x8, addend: 0x0, symName: __ZN3MLS3GUI5LabelC2ENSt3__112basic_stringIcNS2_11char_traitsIcEENS2_9allocatorIcEEEES8_, symObjAddr: 0x0, symBinAddr: 0x10000D970, symSize: 0xCC }
  - { offsetInCU: 0x4743, offset: 0x2CBB6, size: 0x8, addend: 0x0, symName: __ZNKSt3__112basic_stringIcNS_11char_traitsIcEENS_9allocatorIcEEE5emptyB7v160006Ev, symObjAddr: 0xF8, symBinAddr: 0x10000DA3C, symSize: 0x30 }
  - { offsetInCU: 0x4767, offset: 0x2CBDA, size: 0x8, addend: 0x0, symName: __ZN3MLS3GUI5LabelC1ENSt3__112basic_stringIcNS2_11char_traitsIcEENS2_9allocatorIcEEEES8_, symObjAddr: 0x128, symBinAddr: 0x10000DA6C, symSize: 0x3C }
  - { offsetInCU: 0x207E, offset: 0x2ECAA, size: 0x8, addend: 0x0, symName: __ZNSt3__16copy_nB7v160006IPKcmPcEENS_9enable_ifIXsr33__is_cpp17_random_access_iteratorIT_EE5valueET1_E4typeES5_T0_S6_, symObjAddr: 0x1078, symBinAddr: 0x10000E6A8, symSize: 0x44 }
  - { offsetInCU: 0x2E0B, offset: 0x2FA37, size: 0x8, addend: 0x0, symName: __ZNSt3__1plB7v160006IcNS_11char_traitsIcEENS_9allocatorIcEEEENS_12basic_stringIT_T0_T1_EERKS9_SB_, symObjAddr: 0x1AC, symBinAddr: 0x10000DC54, symSize: 0x134 }
  - { offsetInCU: 0x2EAC, offset: 0x2FAD8, size: 0x8, addend: 0x0, symName: __ZNSt3__112__to_addressB7v160006IcEEPT_S2_, symObjAddr: 0x684, symBinAddr: 0x10000E044, symSize: 0x14 }
  - { offsetInCU: 0x30F6, offset: 0x2FD22, size: 0x8, addend: 0x0, symName: __ZNSt3__14copyB7v160006IPKcPcEET0_T_S5_S4_, symObjAddr: 0x10C8, symBinAddr: 0x10000E6EC, symSize: 0x40 }
  - { offsetInCU: 0x3150, offset: 0x2FD7C, size: 0x8, addend: 0x0, symName: __ZNSt3__16__copyB7v160006INS_17_ClassicAlgPolicyEPKcS3_PcEENS_4pairIT0_T2_EES6_T1_S7_, symObjAddr: 0x1108, symBinAddr: 0x10000E72C, symSize: 0x44 }
  - { offsetInCU: 0x31BC, offset: 0x2FDE8, size: 0x8, addend: 0x0, symName: __ZNSt3__123__dispatch_copy_or_moveB7v160006INS_17_ClassicAlgPolicyENS_11__copy_loopIS1_EENS_14__copy_trivialEPKcS6_PcEENS_4pairIT2_T4_EES9_T3_SA_, symObjAddr: 0x114C, symBinAddr: 0x10000E770, symSize: 0x44 }
  - { offsetInCU: 0x323A, offset: 0x2FE66, size: 0x8, addend: 0x0, symName: __ZNSt3__121__unwrap_and_dispatchB7v160006INS_10__overloadINS_11__copy_loopINS_17_ClassicAlgPolicyEEENS_14__copy_trivialEEEPKcS8_PcLi0EEENS_4pairIT0_T2_EESB_T1_SC_, symObjAddr: 0x1190, symBinAddr: 0x10000E7B4, symSize: 0xB4 }
  - { offsetInCU: 0x32C9, offset: 0x2FEF5, size: 0x8, addend: 0x0, symName: __ZNSt3__114__unwrap_rangeB7v160006IPKcS2_EENS_4pairIT0_S4_EET_S6_, symObjAddr: 0x1244, symBinAddr: 0x10000E868, symSize: 0x60 }
  - { offsetInCU: 0x345F, offset: 0x3008B, size: 0x8, addend: 0x0, symName: __ZNSt3__113__unwrap_iterB7v160006IPcNS_18__unwrap_iter_implIS1_Lb1EEELi0EEEDTclsrT0_8__unwrapclsr3stdE7declvalIT_EEEES5_, symObjAddr: 0x12EC, symBinAddr: 0x10000E910, symSize: 0x24 }
  - { offsetInCU: 0x34A4, offset: 0x300D0, size: 0x8, addend: 0x0, symName: __ZNSt3__19make_pairB7v160006IPKcPcEENS_4pairINS_18__unwrap_ref_decayIT_E4typeENS5_IT0_E4typeEEEOS6_OS9_, symObjAddr: 0x1310, symBinAddr: 0x10000E934, symSize: 0x38 }
  - { offsetInCU: 0x34F3, offset: 0x3011F, size: 0x8, addend: 0x0, symName: __ZNSt3__114__rewrap_rangeB7v160006IPKcS2_EET_S3_T0_, symObjAddr: 0x1348, symBinAddr: 0x10000E96C, symSize: 0x2C }
  - { offsetInCU: 0x353F, offset: 0x3016B, size: 0x8, addend: 0x0, symName: __ZNSt3__113__rewrap_iterB7v160006IPcS1_NS_18__unwrap_iter_implIS1_Lb1EEEEET_S4_T0_, symObjAddr: 0x1374, symBinAddr: 0x10000E998, symSize: 0x3C }
  - { offsetInCU: 0x3594, offset: 0x301C0, size: 0x8, addend: 0x0, symName: __ZNSt3__19make_pairB7v160006IPKcS2_EENS_4pairINS_18__unwrap_ref_decayIT_E4typeENS4_IT0_E4typeEEEOS5_OS8_, symObjAddr: 0x13B0, symBinAddr: 0x10000E9D4, symSize: 0x38 }
  - { offsetInCU: 0x35E3, offset: 0x3020F, size: 0x8, addend: 0x0, symName: __ZNSt3__113__unwrap_iterB7v160006IPKcNS_18__unwrap_iter_implIS2_Lb1EEELi0EEEDTclsrT0_8__unwrapclsr3stdE7declvalIT_EEEES6_, symObjAddr: 0x13E8, symBinAddr: 0x10000EA0C, symSize: 0x24 }
  - { offsetInCU: 0x374F, offset: 0x3037B, size: 0x8, addend: 0x0, symName: __ZNSt3__119__copy_trivial_implB7v160006IKccEENS_4pairIPT_PT0_EES4_S4_S6_, symObjAddr: 0x14B4, symBinAddr: 0x10000EAC4, symSize: 0x7C }
  - { offsetInCU: 0x37B7, offset: 0x303E3, size: 0x8, addend: 0x0, symName: __ZNSt3__19make_pairB7v160006IRPKcPcEENS_4pairINS_18__unwrap_ref_decayIT_E4typeENS6_IT0_E4typeEEEOS7_OSA_, symObjAddr: 0x1530, symBinAddr: 0x10000EB40, symSize: 0x38 }
  - { offsetInCU: 0x3859, offset: 0x30485, size: 0x8, addend: 0x0, symName: __ZNSt3__113__rewrap_iterB7v160006IPKcS2_NS_18__unwrap_iter_implIS2_Lb1EEEEET_S5_T0_, symObjAddr: 0x166C, symBinAddr: 0x10000EC7C, symSize: 0x3C }
  - { offsetInCU: 0x38AE, offset: 0x304DA, size: 0x8, addend: 0x0, symName: __ZNSt3__16fill_nB7v160006IPcmcEET_S2_T0_RKT1_, symObjAddr: 0x17F0, symBinAddr: 0x10000ED48, symSize: 0x44 }
  - { offsetInCU: 0x3911, offset: 0x3053D, size: 0x8, addend: 0x0, symName: __ZNSt3__18__fill_nB7v160006IPcmcEET_S2_T0_RKT1_, symObjAddr: 0x1834, symBinAddr: 0x10000ED8C, symSize: 0x64 }
  - { offsetInCU: 0x3974, offset: 0x305A0, size: 0x8, addend: 0x0, symName: __ZNSt3__121__convert_to_integralB7v160006Em, symObjAddr: 0x1898, symBinAddr: 0x10000EDF0, symSize: 0x14 }
  - { offsetInCU: 0x5A8A, offset: 0x326B6, size: 0x8, addend: 0x0, symName: __ZN3MLS3GUI9TextInputC2ENSt3__112basic_stringIcNS2_11char_traitsIcEENS2_9allocatorIcEEEES8_PNS0_14ActionListenerES8_, symObjAddr: 0x0, symBinAddr: 0x10000DAA8, symSize: 0x1AC }
  - { offsetInCU: 0x5AEF, offset: 0x3271B, size: 0x8, addend: 0x0, symName: __ZN3MLS3GUI6ButtonD2Ev, symObjAddr: 0x30C, symBinAddr: 0x10000DD88, symSize: 0x30 }
  - { offsetInCU: 0x5B19, offset: 0x32745, size: 0x8, addend: 0x0, symName: __ZN3MLS3GUI9TextInputC1ENSt3__112basic_stringIcNS2_11char_traitsIcEENS2_9allocatorIcEEEES8_PNS0_14ActionListenerES8_, symObjAddr: 0x33C, symBinAddr: 0x10000DDB8, symSize: 0x4C }
  - { offsetInCU: 0x5B7E, offset: 0x327AA, size: 0x8, addend: 0x0, symName: __ZN3MLS3GUI9TextInput16action_performedEPNS0_6ButtonE, symObjAddr: 0x388, symBinAddr: 0x10000DE04, symSize: 0x194 }
  - { offsetInCU: 0x5BD3, offset: 0x327FF, size: 0x8, addend: 0x0, symName: __ZN3MLS3GUI5LabelD2Ev, symObjAddr: 0x5D8, symBinAddr: 0x10000DF98, symSize: 0x3C }
  - { offsetInCU: 0x5C07, offset: 0x32833, size: 0x8, addend: 0x0, symName: __ZNSt3__116allocator_traitsINS_9allocatorIcEEE37select_on_container_copy_constructionB7v160006IS2_vvEES2_RKS2_, symObjAddr: 0x614, symBinAddr: 0x10000DFD4, symSize: 0x10 }
  - { offsetInCU: 0x5C35, offset: 0x32861, size: 0x8, addend: 0x0, symName: __ZNKSt3__112basic_stringIcNS_11char_traitsIcEENS_9allocatorIcEEE13get_allocatorB7v160006Ev, symObjAddr: 0x624, symBinAddr: 0x10000DFE4, symSize: 0x24 }
  - { offsetInCU: 0x5C59, offset: 0x32885, size: 0x8, addend: 0x0, symName: __ZNSt3__112basic_stringIcNS_11char_traitsIcEENS_9allocatorIcEEEC1B7v160006ENS_24__uninitialized_size_tagEmRKS4_, symObjAddr: 0x648, symBinAddr: 0x10000E008, symSize: 0x3C }
  - { offsetInCU: 0x5CAA, offset: 0x328D6, size: 0x8, addend: 0x0, symName: __ZNSt3__112basic_stringIcNS_11char_traitsIcEENS_9allocatorIcEEE13__get_pointerB7v160006Ev, symObjAddr: 0x698, symBinAddr: 0x10000E058, symSize: 0x54 }
  - { offsetInCU: 0x5CCE, offset: 0x328FA, size: 0x8, addend: 0x0, symName: __ZNSt3__111char_traitsIcE4copyEPcPKcm, symObjAddr: 0x6EC, symBinAddr: 0x10000E0AC, symSize: 0x5C }
  - { offsetInCU: 0x5D0C, offset: 0x32938, size: 0x8, addend: 0x0, symName: __ZNSt3__111char_traitsIcE6assignEPcmc, symObjAddr: 0x770, symBinAddr: 0x10000E108, symSize: 0x44 }
  - { offsetInCU: 0x5D4A, offset: 0x32976, size: 0x8, addend: 0x0, symName: __ZNKSt3__112basic_stringIcNS_11char_traitsIcEENS_9allocatorIcEEE7__allocB7v160006Ev, symObjAddr: 0x7B4, symBinAddr: 0x10000E14C, symSize: 0x24 }
  - { offsetInCU: 0x5D6E, offset: 0x3299A, size: 0x8, addend: 0x0, symName: __ZNKSt3__117__compressed_pairINS_12basic_stringIcNS_11char_traitsIcEENS_9allocatorIcEEE5__repES5_E6secondB7v160006Ev, symObjAddr: 0x7D8, symBinAddr: 0x10000E170, symSize: 0x24 }
  - { offsetInCU: 0x5D92, offset: 0x329BE, size: 0x8, addend: 0x0, symName: __ZNKSt3__122__compressed_pair_elemINS_9allocatorIcEELi1ELb1EE5__getB7v160006Ev, symObjAddr: 0x7FC, symBinAddr: 0x10000E194, symSize: 0x14 }
  - { offsetInCU: 0x5DB6, offset: 0x329E2, size: 0x8, addend: 0x0, symName: __ZNSt3__112basic_stringIcNS_11char_traitsIcEENS_9allocatorIcEEEC2B7v160006ENS_24__uninitialized_size_tagEmRKS4_, symObjAddr: 0x810, symBinAddr: 0x10000E1A8, symSize: 0x118 }
  - { offsetInCU: 0x5E38, offset: 0x32A64, size: 0x8, addend: 0x0, symName: __ZNSt3__117__compressed_pairINS_12basic_stringIcNS_11char_traitsIcEENS_9allocatorIcEEE5__repES5_EC1B7v160006INS_18__default_init_tagERKS5_EEOT_OT0_, symObjAddr: 0x928, symBinAddr: 0x10000E2C0, symSize: 0x3C }
  - { offsetInCU: 0x5E8E, offset: 0x32ABA, size: 0x8, addend: 0x0, symName: __ZNKSt3__112basic_stringIcNS_11char_traitsIcEENS_9allocatorIcEEE8max_sizeB7v160006Ev, symObjAddr: 0x964, symBinAddr: 0x10000E2FC, symSize: 0xAC }
  - { offsetInCU: 0x5EDE, offset: 0x32B0A, size: 0x8, addend: 0x0, symName: __ZNKSt3__112basic_stringIcNS_11char_traitsIcEENS_9allocatorIcEEE20__throw_length_errorB7v160006Ev, symObjAddr: 0xA10, symBinAddr: 0x10000E3A8, symSize: 0x1C }
  - { offsetInCU: 0x5F02, offset: 0x32B2E, size: 0x8, addend: 0x0, symName: __ZNSt3__112basic_stringIcNS_11char_traitsIcEENS_9allocatorIcEEE13__fits_in_ssoB7v160006Em, symObjAddr: 0xA2C, symBinAddr: 0x10000E3C4, symSize: 0x20 }
  - { offsetInCU: 0x5F25, offset: 0x32B51, size: 0x8, addend: 0x0, symName: __ZNSt3__112basic_stringIcNS_11char_traitsIcEENS_9allocatorIcEEE11__recommendB7v160006Em, symObjAddr: 0xAE8, symBinAddr: 0x10000E3E4, symSize: 0x84 }
  - { offsetInCU: 0x5F57, offset: 0x32B83, size: 0x8, addend: 0x0, symName: __ZNSt3__116allocator_traitsINS_9allocatorIcEEE8allocateB7v160006ERS2_m, symObjAddr: 0xB6C, symBinAddr: 0x10000E468, symSize: 0x2C }
  - { offsetInCU: 0x5F89, offset: 0x32BB5, size: 0x8, addend: 0x0, symName: __ZNSt3__112basic_stringIcNS_11char_traitsIcEENS_9allocatorIcEEE16__begin_lifetimeB7v160006EPcm, symObjAddr: 0xBBC, symBinAddr: 0x10000E494, symSize: 0x14 }
  - { offsetInCU: 0x5FBB, offset: 0x32BE7, size: 0x8, addend: 0x0, symName: __ZNSt3__112basic_stringIcNS_11char_traitsIcEENS_9allocatorIcEEE14__set_long_capB7v160006Em, symObjAddr: 0xBD0, symBinAddr: 0x10000E4A8, symSize: 0x70 }
  - { offsetInCU: 0x5FEE, offset: 0x32C1A, size: 0x8, addend: 0x0, symName: __ZNSt3__112basic_stringIcNS_11char_traitsIcEENS_9allocatorIcEEE18__set_long_pointerB7v160006EPc, symObjAddr: 0xC40, symBinAddr: 0x10000E518, symSize: 0x38 }
  - { offsetInCU: 0x6021, offset: 0x32C4D, size: 0x8, addend: 0x0, symName: __ZNSt3__112basic_stringIcNS_11char_traitsIcEENS_9allocatorIcEEE15__set_long_sizeB7v160006Em, symObjAddr: 0xC78, symBinAddr: 0x10000E550, symSize: 0x38 }
  - { offsetInCU: 0x6054, offset: 0x32C80, size: 0x8, addend: 0x0, symName: __ZNSt3__117__compressed_pairINS_12basic_stringIcNS_11char_traitsIcEENS_9allocatorIcEEE5__repES5_EC2B7v160006INS_18__default_init_tagERKS5_EEOT_OT0_, symObjAddr: 0xCC0, symBinAddr: 0x10000E588, symSize: 0x40 }
  - { offsetInCU: 0x60AA, offset: 0x32CD6, size: 0x8, addend: 0x0, symName: __ZNSt3__122__compressed_pair_elemINS_9allocatorIcEELi1ELb1EEC2B7v160006IRKS2_vEEOT_, symObjAddr: 0xD14, symBinAddr: 0x10000E5C8, symSize: 0x18 }
  - { offsetInCU: 0x60EA, offset: 0x32D16, size: 0x8, addend: 0x0, symName: __ZNSt3__116allocator_traitsINS_9allocatorIcEEE8max_sizeB7v160006IS2_vEEmRKS2_, symObjAddr: 0xD2C, symBinAddr: 0x10000E5E0, symSize: 0x24 }
  - { offsetInCU: 0x6117, offset: 0x32D43, size: 0x8, addend: 0x0, symName: __ZNSt3__114numeric_limitsImE3maxB7v160006Ev, symObjAddr: 0xD50, symBinAddr: 0x10000E604, symSize: 0x14 }
  - { offsetInCU: 0x612B, offset: 0x32D57, size: 0x8, addend: 0x0, symName: __ZNKSt3__19allocatorIcE8max_sizeB7v160006Ev, symObjAddr: 0xD64, symBinAddr: 0x10000E618, symSize: 0x14 }
  - { offsetInCU: 0x614F, offset: 0x32D7B, size: 0x8, addend: 0x0, symName: __ZNSt3__123__libcpp_numeric_limitsImLb1EE3maxB7v160006Ev, symObjAddr: 0xD78, symBinAddr: 0x10000E62C, symSize: 0x8 }
  - { offsetInCU: 0x6163, offset: 0x32D8F, size: 0x8, addend: 0x0, symName: __ZNSt3__112basic_stringIcNS_11char_traitsIcEENS_9allocatorIcEEE10__align_itB7v160006ILm16EEEmm, symObjAddr: 0xE78, symBinAddr: 0x10000E634, symSize: 0x1C }
  - { offsetInCU: 0x6190, offset: 0x32DBC, size: 0x8, addend: 0x0, symName: __ZNSt3__19allocatorIcE8allocateB7v160006Em, symObjAddr: 0xE94, symBinAddr: 0x10000E650, symSize: 0x58 }
  - { offsetInCU: 0x61E5, offset: 0x32E11, size: 0x8, addend: 0x0, symName: __ZNKSt3__114__copy_trivialclB7v160006IKccLi0EEENS_4pairIPT_PT0_EES5_S5_S7_, symObjAddr: 0x12A4, symBinAddr: 0x10000E8C8, symSize: 0x48 }
  - { offsetInCU: 0x626A, offset: 0x32E96, size: 0x8, addend: 0x0, symName: __ZNSt3__14pairIPKcS2_EC1B7v160006IS2_S2_LPv0EEEOT_OT0_, symObjAddr: 0x140C, symBinAddr: 0x10000EA30, symSize: 0x3C }
  - { offsetInCU: 0x62C6, offset: 0x32EF2, size: 0x8, addend: 0x0, symName: __ZNSt3__14pairIPKcS2_EC2B7v160006IS2_S2_LPv0EEEOT_OT0_, symObjAddr: 0x1448, symBinAddr: 0x10000EA6C, symSize: 0x34 }
  - { offsetInCU: 0x6322, offset: 0x32F4E, size: 0x8, addend: 0x0, symName: __ZNSt3__118__unwrap_iter_implIPKcLb1EE8__unwrapB7v160006ES2_, symObjAddr: 0x147C, symBinAddr: 0x10000EAA0, symSize: 0x24 }
  - { offsetInCU: 0x634E, offset: 0x32F7A, size: 0x8, addend: 0x0, symName: __ZNSt3__14pairIPKcPcEC1B7v160006IRS2_S3_LPv0EEEOT_OT0_, symObjAddr: 0x1568, symBinAddr: 0x10000EB78, symSize: 0x3C }
  - { offsetInCU: 0x63AA, offset: 0x32FD6, size: 0x8, addend: 0x0, symName: __ZNSt3__14pairIPKcPcEC2B7v160006IRS2_S3_LPv0EEEOT_OT0_, symObjAddr: 0x15A4, symBinAddr: 0x10000EBB4, symSize: 0x34 }
  - { offsetInCU: 0x6406, offset: 0x33032, size: 0x8, addend: 0x0, symName: __ZNSt3__118__unwrap_iter_implIPcLb1EE8__unwrapB7v160006ES1_, symObjAddr: 0x15D8, symBinAddr: 0x10000EBE8, symSize: 0x24 }
  - { offsetInCU: 0x6428, offset: 0x33054, size: 0x8, addend: 0x0, symName: __ZNSt3__14pairIPKcPcEC1B7v160006IS2_S3_LPv0EEEOT_OT0_, symObjAddr: 0x15FC, symBinAddr: 0x10000EC0C, symSize: 0x3C }
  - { offsetInCU: 0x6484, offset: 0x330B0, size: 0x8, addend: 0x0, symName: __ZNSt3__14pairIPKcPcEC2B7v160006IS2_S3_LPv0EEEOT_OT0_, symObjAddr: 0x1638, symBinAddr: 0x10000EC48, symSize: 0x34 }
  - { offsetInCU: 0x64E0, offset: 0x3310C, size: 0x8, addend: 0x0, symName: __ZNSt3__118__unwrap_iter_implIPKcLb1EE8__rewrapB7v160006ES2_S2_, symObjAddr: 0x16A8, symBinAddr: 0x10000ECB8, symSize: 0x48 }
  - { offsetInCU: 0x6510, offset: 0x3313C, size: 0x8, addend: 0x0, symName: __ZNSt3__118__unwrap_iter_implIPcLb1EE8__rewrapB7v160006ES1_S1_, symObjAddr: 0x16F0, symBinAddr: 0x10000ED00, symSize: 0x48 }
  - { offsetInCU: 0x26, offset: 0x331DA, size: 0x8, addend: 0x0, symName: __ZN3MLS3GUI14ActionListenerC2EPFvPNS0_6ButtonEE, symObjAddr: 0x0, symBinAddr: 0x10000EE04, symSize: 0x50 }
  - { offsetInCU: 0x5D, offset: 0x33211, size: 0x8, addend: 0x0, symName: __ZN3MLS3GUI14ActionListenerC2EPFvPNS0_6ButtonEE, symObjAddr: 0x0, symBinAddr: 0x10000EE04, symSize: 0x50 }
  - { offsetInCU: 0x95, offset: 0x33249, size: 0x8, addend: 0x0, symName: __ZN3MLS3GUI14ActionListenerC1EPFvPNS0_6ButtonEE, symObjAddr: 0x74, symBinAddr: 0x10000EE54, symSize: 0x34 }
  - { offsetInCU: 0xCD, offset: 0x33281, size: 0x8, addend: 0x0, symName: __ZN3MLS3GUI14ActionListener16action_performedEPNS0_6ButtonE, symObjAddr: 0xA8, symBinAddr: 0x10000EE88, symSize: 0x50 }
  - { offsetInCU: 0x475E, offset: 0x37A18, size: 0x8, addend: 0x0, symName: __ZN3MLS4TileC2Ev, symObjAddr: 0x0, symBinAddr: 0x10000EED8, symSize: 0x48 }
  - { offsetInCU: 0x478D, offset: 0x37A47, size: 0x8, addend: 0x0, symName: __ZN3MLS4TileC1Ev, symObjAddr: 0x7C, symBinAddr: 0x10000EF20, symSize: 0x2C }
  - { offsetInCU: 0x47B7, offset: 0x37A71, size: 0x8, addend: 0x0, symName: __ZN3MLS4TileC2EiiNSt3__112basic_stringIcNS1_11char_traitsIcEENS1_9allocatorIcEEEENS_5ColorE, symObjAddr: 0xA8, symBinAddr: 0x10000EF4C, symSize: 0x64 }
  - { offsetInCU: 0x481A, offset: 0x37AD4, size: 0x8, addend: 0x0, symName: __ZN3MLS4TileC1EiiNSt3__112basic_stringIcNS1_11char_traitsIcEENS1_9allocatorIcEEEENS_5ColorE, symObjAddr: 0x10C, symBinAddr: 0x10000EFB0, symSize: 0x4C }
  - { offsetInCU: 0x487D, offset: 0x37B37, size: 0x8, addend: 0x0, symName: __ZNK3MLS4Tile5emptyEv, symObjAddr: 0x158, symBinAddr: 0x10000EFFC, symSize: 0x34 }
  - { offsetInCU: 0x4CC2, offset: 0x3C829, size: 0x8, addend: 0x0, symName: __ZNSt3__19make_pairB7v160006IiiEENS_4pairINS_18__unwrap_ref_decayIT_E4typeENS2_IT0_E4typeEEEOS3_OS6_, symObjAddr: 0x5C0, symBinAddr: 0x10000F5F0, symSize: 0x34 }
  - { offsetInCU: 0x4D11, offset: 0x3C878, size: 0x8, addend: 0x0, symName: __ZNSt3__1neB7v160006IPiEEbRKNS_11__wrap_iterIT_EES6_, symObjAddr: 0x654, symBinAddr: 0x10000F684, symSize: 0x34 }
  - { offsetInCU: 0x4D54, offset: 0x3C8BB, size: 0x8, addend: 0x0, symName: __ZNSt3__13maxB7v160006IiEERKT_S3_S3_, symObjAddr: 0x6D4, symBinAddr: 0x10000F704, symSize: 0x2C }
  - { offsetInCU: 0x4D97, offset: 0x3C8FE, size: 0x8, addend: 0x0, symName: __ZNSt3__19make_pairB7v160006IRiS1_EENS_4pairINS_18__unwrap_ref_decayIT_E4typeENS3_IT0_E4typeEEEOS4_OS7_, symObjAddr: 0x778, symBinAddr: 0x10000F77C, symSize: 0x34 }
  - { offsetInCU: 0x4DE6, offset: 0x3C94D, size: 0x8, addend: 0x0, symName: __ZNSt3__13minB7v160006IiEERKT_S3_S3_, symObjAddr: 0x7AC, symBinAddr: 0x10000F7B0, symSize: 0x2C }
  - { offsetInCU: 0x4E29, offset: 0x3C990, size: 0x8, addend: 0x0, symName: __ZNSt3__1eqB7v160006IPiEEbRKNS_11__wrap_iterIT_EES6_, symObjAddr: 0x81C, symBinAddr: 0x10000F820, symSize: 0x48 }
  - { offsetInCU: 0x4E6C, offset: 0x3C9D3, size: 0x8, addend: 0x0, symName: __ZNSt3__130__uninitialized_allocator_copyB7v160006INS_9allocatorIN3MLS4TileEEEPS3_S5_S5_EET2_RT_T0_T1_S6_, symObjAddr: 0x1434, symBinAddr: 0x10000FB48, symSize: 0xF4 }
  - { offsetInCU: 0x4F0A, offset: 0x3CA71, size: 0x8, addend: 0x0, symName: __ZNSt3__122__make_exception_guardB7v160006INS_29_AllocatorDestroyRangeReverseINS_9allocatorIN3MLS4TileEEEPS4_EEEENS_28__exception_guard_exceptionsIT_EES9_, symObjAddr: 0x15A0, symBinAddr: 0x10000FC3C, symSize: 0x4C }
  - { offsetInCU: 0x4F40, offset: 0x3CAA7, size: 0x8, addend: 0x0, symName: __ZNSt3__119__allocator_destroyB7v160006INS_9allocatorIN3MLS4TileEEENS_16reverse_iteratorIPS3_EES7_EEvRT_T0_T1_, symObjAddr: 0x18B8, symBinAddr: 0x10000FECC, symSize: 0x70 }
  - { offsetInCU: 0x4FA3, offset: 0x3CB0A, size: 0x8, addend: 0x0, symName: __ZNSt3__13maxB7v160006IiNS_6__lessIiiEEEERKT_S5_S5_T0_, symObjAddr: 0x2580, symBinAddr: 0x100010070, symSize: 0x54 }
  - { offsetInCU: 0x5038, offset: 0x3CB9F, size: 0x8, addend: 0x0, symName: __ZNSt3__13minB7v160006IiNS_6__lessIiiEEEERKT_S5_S5_T0_, symObjAddr: 0x2678, symBinAddr: 0x100010168, symSize: 0x54 }
  - { offsetInCU: 0x714A, offset: 0x3ECB1, size: 0x8, addend: 0x0, symName: __ZN3MLS3BotC2Ev, symObjAddr: 0x0, symBinAddr: 0x10000F030, symSize: 0x4C }
  - { offsetInCU: 0x7174, offset: 0x3ECDB, size: 0x8, addend: 0x0, symName: __ZN3MLS3BotC1Ev, symObjAddr: 0x4C, symBinAddr: 0x10000F07C, symSize: 0x2C }
  - { offsetInCU: 0x719E, offset: 0x3ED05, size: 0x8, addend: 0x0, symName: __ZN3MLS3BotC2EPNS_5BoardE, symObjAddr: 0x78, symBinAddr: 0x10000F0A8, symSize: 0x54 }
  - { offsetInCU: 0x71D6, offset: 0x3ED3D, size: 0x8, addend: 0x0, symName: __ZN3MLS3BotC1EPNS_5BoardE, symObjAddr: 0xCC, symBinAddr: 0x10000F0FC, symSize: 0x34 }
  - { offsetInCU: 0x720E, offset: 0x3ED75, size: 0x8, addend: 0x0, symName: __ZNK3MLS3Bot7min_maxERNS_5BoardEibii, symObjAddr: 0x100, symBinAddr: 0x10000F130, symSize: 0x4C0 }
  - { offsetInCU: 0x73B4, offset: 0x3EF1B, size: 0x8, addend: 0x0, symName: __ZNSt3__16vectorIiNS_9allocatorIiEEE5beginB7v160006Ev, symObjAddr: 0x5F4, symBinAddr: 0x10000F624, symSize: 0x30 }
  - { offsetInCU: 0x73DA, offset: 0x3EF41, size: 0x8, addend: 0x0, symName: __ZNSt3__16vectorIiNS_9allocatorIiEEE3endB7v160006Ev, symObjAddr: 0x624, symBinAddr: 0x10000F654, symSize: 0x30 }
  - { offsetInCU: 0x7400, offset: 0x3EF67, size: 0x8, addend: 0x0, symName: __ZNKSt3__111__wrap_iterIPiEdeB7v160006Ev, symObjAddr: 0x688, symBinAddr: 0x10000F6B8, symSize: 0x18 }
  - { offsetInCU: 0x7429, offset: 0x3EF90, size: 0x8, addend: 0x0, symName: __ZN3MLS5BoardC1ERKS0_, symObjAddr: 0x6A0, symBinAddr: 0x10000F6D0, symSize: 0x34 }
  - { offsetInCU: 0x745B, offset: 0x3EFC2, size: 0x8, addend: 0x0, symName: __ZN3MLS5BoardD1Ev, symObjAddr: 0x700, symBinAddr: 0x10000F730, symSize: 0x2C }
  - { offsetInCU: 0x7485, offset: 0x3EFEC, size: 0x8, addend: 0x0, symName: __ZNSt3__111__wrap_iterIPiEppB7v160006Ev, symObjAddr: 0x72C, symBinAddr: 0x10000F75C, symSize: 0x20 }
  - { offsetInCU: 0x74A9, offset: 0x3F010, size: 0x8, addend: 0x0, symName: __ZNK3MLS3Bot10get_columnEv, symObjAddr: 0x7D8, symBinAddr: 0x10000F7DC, symSize: 0x44 }
  - { offsetInCU: 0x74CF, offset: 0x3F036, size: 0x8, addend: 0x0, symName: __ZNKSt3__111__wrap_iterIPiE4baseB7v160006Ev, symObjAddr: 0x864, symBinAddr: 0x10000F868, symSize: 0x18 }
  - { offsetInCU: 0x74F3, offset: 0x3F05A, size: 0x8, addend: 0x0, symName: __ZN3MLS5BoardC2ERKS0_, symObjAddr: 0x87C, symBinAddr: 0x10000F880, symSize: 0x4C }
  - { offsetInCU: 0x7525, offset: 0x3F08C, size: 0x8, addend: 0x0, symName: __ZNSt3__16vectorIN3MLS4TileENS_9allocatorIS2_EEEC1ERKS5_, symObjAddr: 0x8C8, symBinAddr: 0x10000F8CC, symSize: 0x34 }
  - { offsetInCU: 0x755F, offset: 0x3F0C6, size: 0x8, addend: 0x0, symName: __ZNSt3__16vectorIN3MLS4TileENS_9allocatorIS2_EEEC2ERKS5_, symObjAddr: 0x8FC, symBinAddr: 0x10000F900, symSize: 0x114 }
  - { offsetInCU: 0x75C7, offset: 0x3F12E, size: 0x8, addend: 0x0, symName: __ZNSt3__116allocator_traitsINS_9allocatorIN3MLS4TileEEEE37select_on_container_copy_constructionB7v160006IS4_vvEES4_RKS4_, symObjAddr: 0xA10, symBinAddr: 0x10000FA14, symSize: 0x10 }
  - { offsetInCU: 0x75FF, offset: 0x3F166, size: 0x8, addend: 0x0, symName: __ZNSt3__117__compressed_pairIPN3MLS4TileENS_9allocatorIS2_EEEC1B7v160006IDnS5_EEOT_OT0_, symObjAddr: 0xA48, symBinAddr: 0x10000FA24, symSize: 0x3C }
  - { offsetInCU: 0x7655, offset: 0x3F1BC, size: 0x8, addend: 0x0, symName: __ZNSt3__16vectorIN3MLS4TileENS_9allocatorIS2_EEE18__construct_at_endIPS2_Li0EEEvT_S8_m, symObjAddr: 0xBE4, symBinAddr: 0x10000FA60, symSize: 0x8C }
  - { offsetInCU: 0x76C7, offset: 0x3F22E, size: 0x8, addend: 0x0, symName: __ZNSt3__117__compressed_pairIPN3MLS4TileENS_9allocatorIS2_EEEC2B7v160006IDnS5_EEOT_OT0_, symObjAddr: 0xCF0, symBinAddr: 0x10000FAEC, symSize: 0x44 }
  - { offsetInCU: 0x771D, offset: 0x3F284, size: 0x8, addend: 0x0, symName: __ZNSt3__122__compressed_pair_elemINS_9allocatorIN3MLS4TileEEELi1ELb1EEC2B7v160006IS4_vEEOT_, symObjAddr: 0xD50, symBinAddr: 0x10000FB30, symSize: 0x18 }
  - { offsetInCU: 0x7776, offset: 0x3F2DD, size: 0x8, addend: 0x0, symName: __ZNSt3__129_AllocatorDestroyRangeReverseINS_9allocatorIN3MLS4TileEEEPS3_EC1B7v160006ERS4_RS5_S8_, symObjAddr: 0x15EC, symBinAddr: 0x10000FC88, symSize: 0x44 }
  - { offsetInCU: 0x77CC, offset: 0x3F333, size: 0x8, addend: 0x0, symName: __ZNSt3__116allocator_traitsINS_9allocatorIN3MLS4TileEEEE9constructB7v160006IS3_JRS3_EvEEvRS4_PT_DpOT0_, symObjAddr: 0x1630, symBinAddr: 0x10000FCCC, symSize: 0x34 }
  - { offsetInCU: 0x7821, offset: 0x3F388, size: 0x8, addend: 0x0, symName: __ZNSt3__128__exception_guard_exceptionsINS_29_AllocatorDestroyRangeReverseINS_9allocatorIN3MLS4TileEEEPS4_EEE10__completeB7v160006Ev, symObjAddr: 0x1664, symBinAddr: 0x10000FD00, symSize: 0x1C }
  - { offsetInCU: 0x7845, offset: 0x3F3AC, size: 0x8, addend: 0x0, symName: __ZNSt3__128__exception_guard_exceptionsINS_29_AllocatorDestroyRangeReverseINS_9allocatorIN3MLS4TileEEEPS4_EEED1B7v160006Ev, symObjAddr: 0x1680, symBinAddr: 0x10000FD1C, symSize: 0x2C }
  - { offsetInCU: 0x786D, offset: 0x3F3D4, size: 0x8, addend: 0x0, symName: __ZNSt3__128__exception_guard_exceptionsINS_29_AllocatorDestroyRangeReverseINS_9allocatorIN3MLS4TileEEEPS4_EEEC1B7v160006ES7_, symObjAddr: 0x16AC, symBinAddr: 0x10000FD48, symSize: 0x34 }
  - { offsetInCU: 0x78A4, offset: 0x3F40B, size: 0x8, addend: 0x0, symName: __ZNSt3__128__exception_guard_exceptionsINS_29_AllocatorDestroyRangeReverseINS_9allocatorIN3MLS4TileEEEPS4_EEEC2B7v160006ES7_, symObjAddr: 0x16E0, symBinAddr: 0x10000FD7C, symSize: 0x30 }
  - { offsetInCU: 0x78DB, offset: 0x3F442, size: 0x8, addend: 0x0, symName: __ZNSt3__129_AllocatorDestroyRangeReverseINS_9allocatorIN3MLS4TileEEEPS3_EC2B7v160006ERS4_RS5_S8_, symObjAddr: 0x1710, symBinAddr: 0x10000FDAC, symSize: 0x38 }
  - { offsetInCU: 0x7930, offset: 0x3F497, size: 0x8, addend: 0x0, symName: __ZNSt3__19allocatorIN3MLS4TileEE9constructB7v160006IS2_JRS2_EEEvPT_DpOT0_, symObjAddr: 0x1748, symBinAddr: 0x10000FDE4, symSize: 0x30 }
  - { offsetInCU: 0x7984, offset: 0x3F4EB, size: 0x8, addend: 0x0, symName: __ZNSt3__128__exception_guard_exceptionsINS_29_AllocatorDestroyRangeReverseINS_9allocatorIN3MLS4TileEEEPS4_EEED2B7v160006Ev, symObjAddr: 0x1800, symBinAddr: 0x10000FE14, symSize: 0x50 }
  - { offsetInCU: 0x79AC, offset: 0x3F513, size: 0x8, addend: 0x0, symName: __ZNKSt3__129_AllocatorDestroyRangeReverseINS_9allocatorIN3MLS4TileEEEPS3_EclB7v160006Ev, symObjAddr: 0x1850, symBinAddr: 0x10000FE64, symSize: 0x68 }
  - { offsetInCU: 0x79D0, offset: 0x3F537, size: 0x8, addend: 0x0, symName: __ZN3MLS5BoardD2Ev, symObjAddr: 0x1EF4, symBinAddr: 0x10000FF3C, symSize: 0x30 }
  - { offsetInCU: 0x79FF, offset: 0x3F566, size: 0x8, addend: 0x0, symName: __ZNSt3__14pairIiiEC1B7v160006IiiLPv0EEEOT_OT0_, symObjAddr: 0x1F94, symBinAddr: 0x10000FF6C, symSize: 0x3C }
  - { offsetInCU: 0x7A5B, offset: 0x3F5C2, size: 0x8, addend: 0x0, symName: __ZNSt3__14pairIiiEC2B7v160006IiiLPv0EEEOT_OT0_, symObjAddr: 0x1FD0, symBinAddr: 0x10000FFA8, symSize: 0x34 }
  - { offsetInCU: 0x7AB7, offset: 0x3F61E, size: 0x8, addend: 0x0, symName: __ZNSt3__16vectorIiNS_9allocatorIiEEE11__make_iterB7v160006EPi, symObjAddr: 0x24EC, symBinAddr: 0x10000FFDC, symSize: 0x34 }
  - { offsetInCU: 0x7AEA, offset: 0x3F651, size: 0x8, addend: 0x0, symName: __ZNSt3__111__wrap_iterIPiEC1B7v160006EPKvS1_, symObjAddr: 0x2520, symBinAddr: 0x100010010, symSize: 0x3C }
  - { offsetInCU: 0x7B2E, offset: 0x3F695, size: 0x8, addend: 0x0, symName: __ZNSt3__111__wrap_iterIPiEC2B7v160006EPKvS1_, symObjAddr: 0x255C, symBinAddr: 0x10001004C, symSize: 0x24 }
  - { offsetInCU: 0x7B7C, offset: 0x3F6E3, size: 0x8, addend: 0x0, symName: __ZNKSt3__16__lessIiiEclB7v160006ERKiS3_, symObjAddr: 0x25D4, symBinAddr: 0x1000100C4, symSize: 0x34 }
  - { offsetInCU: 0x7BBC, offset: 0x3F723, size: 0x8, addend: 0x0, symName: __ZNSt3__14pairIiiEC1B7v160006IRiS3_LPv0EEEOT_OT0_, symObjAddr: 0x2608, symBinAddr: 0x1000100F8, symSize: 0x3C }
  - { offsetInCU: 0x7C18, offset: 0x3F77F, size: 0x8, addend: 0x0, symName: __ZNSt3__14pairIiiEC2B7v160006IRiS3_LPv0EEEOT_OT0_, symObjAddr: 0x2644, symBinAddr: 0x100010134, symSize: 0x34 }
  - { offsetInCU: 0x26, offset: 0x3F842, size: 0x8, addend: 0x0, symName: _main, symObjAddr: 0x0, symBinAddr: 0x1000101BC, symSize: 0x30 }
  - { offsetInCU: 0x28B5, offset: 0x420D1, size: 0x8, addend: 0x0, symName: _main, symObjAddr: 0x0, symBinAddr: 0x1000101BC, symSize: 0x30 }
  - { offsetInCU: 0x39, offset: 0x42124, size: 0x8, addend: 0x0, symName: __ZN3MLS8Connect55boardE, symObjAddr: 0x25778, symBinAddr: 0x100018060, symSize: 0x0 }
  - { offsetInCU: 0x441E, offset: 0x46509, size: 0x8, addend: 0x0, symName: __ZNSt3__1plB7v160006IcNS_11char_traitsIcEENS_9allocatorIcEEEENS_12basic_stringIT_T0_T1_EERKS9_PKS6_, symObjAddr: 0x1DF0, symBinAddr: 0x100011ED0, symSize: 0x11C }
  - { offsetInCU: 0x44BF, offset: 0x465AA, size: 0x8, addend: 0x0, symName: __ZNSt3__1plB7v160006IcNS_11char_traitsIcEENS_9allocatorIcEEEENS_12basic_stringIT_T0_T1_EEOS9_PKS6_, symObjAddr: 0x24A0, symBinAddr: 0x100012540, symSize: 0x40 }
  - { offsetInCU: 0x484A, offset: 0x46935, size: 0x8, addend: 0x0, symName: __ZN3MLS8Connect55panelE, symObjAddr: 0x25780, symBinAddr: 0x100018068, symSize: 0x0 }
  - { offsetInCU: 0x485D, offset: 0x46948, size: 0x8, addend: 0x0, symName: __ZN3MLS8Connect55widthE, symObjAddr: 0x4894, symBinAddr: 0x100018000, symSize: 0x0 }
  - { offsetInCU: 0x4870, offset: 0x4695B, size: 0x8, addend: 0x0, symName: __ZN3MLS8Connect56heightE, symObjAddr: 0x4898, symBinAddr: 0x100018004, symSize: 0x0 }
  - { offsetInCU: 0x4883, offset: 0x4696E, size: 0x8, addend: 0x0, symName: __ZN3MLS8Connect58gametypeE, symObjAddr: 0x257C0, symBinAddr: 0x1000180A8, symSize: 0x0 }
  - { offsetInCU: 0x4896, offset: 0x46981, size: 0x8, addend: 0x0, symName: __ZN3MLS8Connect59who_startE, symObjAddr: 0x257D8, symBinAddr: 0x1000180C0, symSize: 0x0 }
  - { offsetInCU: 0x48A9, offset: 0x46994, size: 0x8, addend: 0x0, symName: __ZN3MLS8Connect515action_listenerE, symObjAddr: 0x257F0, symBinAddr: 0x1000180D8, symSize: 0x0 }
  - { offsetInCU: 0x6646, offset: 0x48731, size: 0x8, addend: 0x0, symName: __ZN3MLS3GUI5PanelD1Ev, symObjAddr: 0x34, symBinAddr: 0x1000101EC, symSize: 0x2C }
  - { offsetInCU: 0x6670, offset: 0x4875B, size: 0x8, addend: 0x0, symName: __ZN3MLS8Connect54initEv, symObjAddr: 0x60, symBinAddr: 0x100010218, symSize: 0x98 }
  - { offsetInCU: 0x6686, offset: 0x48771, size: 0x8, addend: 0x0, symName: __ZN3MLS8Connect53runEv, symObjAddr: 0xF8, symBinAddr: 0x1000102B0, symSize: 0x6FC }
  - { offsetInCU: 0x66C7, offset: 0x487B2, size: 0x8, addend: 0x0, symName: __ZN3MLS8Connect516action_performedEPNS_3GUI6ButtonE, symObjAddr: 0x820, symBinAddr: 0x1000109AC, symSize: 0x1524 }
  - { offsetInCU: 0x671E, offset: 0x48809, size: 0x8, addend: 0x0, symName: __ZN3MLS8Connect54playEv, symObjAddr: 0x1F4C, symBinAddr: 0x100011FEC, symSize: 0x554 }
  - { offsetInCU: 0x6743, offset: 0x4882E, size: 0x8, addend: 0x0, symName: __ZN3MLS3GUI5PanelD2Ev, symObjAddr: 0x2504, symBinAddr: 0x100012580, symSize: 0x38 }
...
